((dp0
S'42'
p1
(lp2
(F-8050076.880399433
F5183775.108876222
tp3
a(F-8049208.922329713
F5183882.701247282
tp4
a(F-8048577.072899972
F5184507.871893502
tp5
a(F-8047197.713089553
F5185050.540644341
tp6
a(F-8046697.554617412
F5185055.193084311
tp7
a(F-8046381.629902542
F5182678.997625502
tp8
a(F-8046055.463794522
F5182721.309190891
tp9
a(F-8045908.522066671
F5181654.575927122
tp10
a(F-8046241.478663633
F5181607.0183555605
tp11
a(F-8045628.219588852
F5177540.013817152
tp12
a(F-8044220.139349812
F5178034.8896196205
tp13
a(F-8044170.8248153925
F5177739.760541691
tp14
a(F-8038580.805265713
F5178906.834384442
tp15
a(F-8038721.735741063
F5177555.459545651
tp16
a(F-8039187.162532063
F5176722.626189372
tp17
a(F-8039197.403925221
F5176366.212917151
tp18
a(F-8038904.299705963
F5176387.504368572
tp19
a(F-8038523.809686433
F5176414.943423052
tp20
a(F-8037694.924757982
F5175920.752864912
tp21
a(F-8038670.751414273
F5174647.162753401
tp22
a(F-8038760.808882332
F5172736.727172712
tp23
a(F-8039311.172444812
F5172761.307787431
tp24
a(F-8039116.697294393
F5170671.136535092
tp25
a(F-8038575.684569142
F5170595.163603522
tp26
a(F-8038563.773383623
F5169919.526076572
tp27
a(F-8038458.465145332
F5169324.993312102
tp28
a(F-8039311.172444812
F5169528.011227412
tp29
a(F-8039667.840093313
F5169032.385550712
tp30
asS'43'
p31
(lp32
(F-8030161.600857532
F5136881.328407002
tp33
a(F-8026429.837567663
F5136666.0244414015
tp34
a(F-8026167.346208372
F5136654.079843952
tp35
a(F-8014289.111262772
F5136385.927617181
tp36
a(F-8010940.287021233
F5136280.520201181
tp37
a(F-8002066.7877711225
F5135994.612255032
tp38
a(F-7993313.068293103
F5135874.428998121
tp39
a(F-7992865.452620622
F5135884.133179372
tp40
a(F-7992709.160055553
F5133569.894305791
tp41
a(F-7979545.073671793
F5134078.282518282
tp42
a(F-7971226.168124812
F5134360.848363842
tp43
a(F-7969502.942407332
F5134415.481723391
tp44
a(F-7966368.185546593
F5134499.671454902
tp45
a(F-7962616.830026353
F5134604.461852232
tp46
a(F-7959177.169080323
F5134933.0216350015
tp47
asS'24'
p48
(lp49
(F-7921216.777441852
F5181759.293449931
tp50
a(F-7921692.445626012
F5182253.792008721
tp51
a(F-7922407.562034871
F5182238.938668101
tp52
a(F-7922563.743280452
F5182974.282324551
tp53
a(F-7922308.153729592
F5183214.2079971405
tp54
a(F-7923198.264377972
F5184759.692696372
tp55
a(F-7922518.770206172
F5186155.635108682
tp56
a(F-7920270.673089602
F5186425.812499342
tp57
a(F-7919747.471482882
F5186996.212595922
tp58
a(F-7919324.568737353
F5186921.157966102
tp59
a(F-7918434.458088972
F5187701.605409281
tp60
a(F-7918567.818838943
F5188137.417318322
tp61
a(F-7918322.359361742
F5188317.272584322
tp62
a(F-7917932.518504983
F5188197.0183883915
tp63
a(F-7916786.818305743
F5187326.610230941
tp64
a(F-7916774.907120223
F5185585.286218351
tp65
a(F-7916096.414823842
F5185135.335477501
tp66
a(F-7914782.510874002
F5185165.051370632
tp67
a(F-7912322.127488492
F5186050.868418292
tp68
a(F-7911510.163122652
F5187611.683258751
tp69
a(F-7910874.862788692
F5187596.821417222
tp70
a(F-7911866.051534712
F5188257.220358282
tp71
a(F-7912166.614159853
F5189278.3107499005
tp72
a(F-7912745.030234023
F5189608.788948651
tp73
a(F-7911921.154682652
F5191020.321982132
tp74
a(F-7911242.662386273
F5191500.892449741
tp75
a(F-7911632.503243033
F5190599.8430685215
tp76
a(F-7911053.196612943
F5190239.447608542
tp77
a(F-7909895.585228181
F5190314.528851452
tp78
a(F-7909306.259843922
F5191271.717329331
tp79
a(F-7909583.890653962
F5191801.111339702
tp80
a(F-7909105.773441003
F5191741.036753852
tp81
a(F-7908259.856630463
F5192521.886260392
tp82
a(F-7907424.181213083
F5194459.7980513815
tp83
a(F-7906867.917717582
F5195872.063263661
tp84
a(F-7905976.916513273
F5198006.190298112
tp85
a(F-7906556.223143362
F5198997.984327872
tp86
asS'25'
p87
(lp88
(F-7922073.714881982
F5177799.145523941
tp89
a(F-7920682.555205542
F5176434.285755621
tp90
a(F-7919969.999144973
F5176929.103181932
tp91
a(F-7917610.693857102
F5180483.709701481
tp92
a(F-7916730.824601873
F5180799.026605611
tp93
a(F-7916052.220985993
F5183274.227888142
tp94
a(F-7915506.087564162
F5183844.436036451
tp95
a(F-7915606.275105873
F5184700.263576991
tp96
a(F-7917654.887694942
F5184925.2257924015
tp97
a(F-7921216.777441852
F5181759.293449931
tp98
asS'26'
p99
(lp100
(F-7895466.0188730825
F5175658.824439752
tp101
a(F-7896804.524430383
F5173871.099729441
tp102
a(F-7899332.0334688425
F5175400.201663611
tp103
a(F-7899309.101653742
F5177169.3239688715
tp104
a(F-7901067.949608273
F5177259.145931832
tp105
a(F-7902481.261863382
F5179283.742399332
tp106
a(F-7903584.438017143
F5179044.067342461
tp107
a(F-7904831.216314033
F5178023.942084402
tp108
a(F-7906199.444175372
F5178084.078702812
tp109
a(F-7906890.849532692
F5178546.888632851
tp110
a(F-7906901.870162282
F5178564.135718102
tp111
asS'27'
p112
(lp113
(F-7852257.024563203
F5104152.311012262
tp114
a(F-7855350.147934382
F5100586.0871702405
tp115
a(F-7862835.938412271
F5097037.710208962
tp116
a(F-7861528.824951372
F5094761.358008562
tp117
a(F-7862852.079738433
F5093327.471565752
tp118
a(F-7862840.947789351
F5092699.257779072
tp119
a(F-7863592.576991193
F5092014.467488342
tp120
a(F-7864079.265804942
F5090293.496475281
tp121
a(F-7864094.516575182
F5090277.153057821
tp122
asS'20'
p123
(lp124
(F-7956936.641689132
F5155780.061446302
tp125
a(F-7956945.213289922
F5152065.950494571
tp126
a(F-7959532.166936462
F5149934.9256896805
tp127
a(F-7959699.480131132
F5148903.755419751
tp128
a(F-7959312.978859092
F5147979.879809101
tp129
a(F-7958859.463253602
F5147420.964162582
tp130
a(F-7959154.237265222
F5146577.645867992
tp131
a(F-7959199.2103395015
F5142026.645874671
tp132
a(F-7959177.169080323
F5134933.0216350015
tp133
asS'22'
p134
(lp135
(F-7884343.531950473
F5171964.269214061
tp136
a(F-7884377.595714652
F5171913.3138051005
tp137
a(F-7885455.2797050215
F5171966.517253182
tp138
a(F-7886443.908102762
F5171324.499174972
tp139
a(F-7886975.569990792
F5169350.164298462
tp140
a(F-7886065.978431522
F5168763.308330902
tp141
a(F-7887436.766641153
F5168182.031990192
tp142
a(F-7886024.3449419625
F5164228.210890901
tp143
a(F-7884475.222908082
F5162362.863524091
tp144
a(F-7880148.902217892
F5165755.891669702
tp145
a(F-7880159.922847482
F5166128.976476122
tp146
a(F-7879815.945620932
F5166046.150668052
tp147
a(F-7880217.697663202
F5167142.565951012
tp148
a(F-7879441.466853902
F5167742.652919701
tp149
a(F-7879591.748166473
F5168334.688449921
tp150
a(F-7880256.770804472
F5168276.8614713205
tp151
a(F-7879866.039391791
F5168852.450541772
tp152
asS'23'
p153
(lp154
(F-7922073.714881982
F5177799.145523941
tp155
a(F-7923666.140197782
F5179389.033379811
tp156
a(F-7921216.777441852
F5181759.293449931
tp157
asS'46'
p158
(lp159
(F-7899017.778546332
F5198913.815268962
tp160
a(F-7900244.185376402
F5198922.983647522
tp161
a(F-7901769.485039252
F5196953.642043572
tp162
a(F-7902671.506873153
F5197509.656482911
tp163
a(F-7903296.565813953
F5196928.396767252
tp164
a(F-7904140.812832132
F5196743.266823591
tp165
a(F-7904128.9016466215
F5197164.021996972
tp166
a(F-7904652.882489782
F5197450.146330422
tp167
a(F-7904797.263869341
F5197209.254305232
tp168
a(F-7905075.896554792
F5198216.593937262
tp169
a(F-7904797.263869341
F5198441.8813690515
tp170
a(F-7905798.582689022
F5199779.590355732
tp171
a(F-7906556.223143362
F5198997.984327872
tp172
asS'47'
p173
(lp174
(F-7899017.778546332
F5198913.815268962
tp175
a(F-7897946.773725412
F5200568.6278087115
tp176
a(F-7897267.390873102
F5200575.542891282
tp177
a(F-7896987.978951212
F5200578.399122521
tp178
a(F-7897195.144523572
F5198125.368349392
tp179
a(F-7896769.681429762
F5196021.114757551
tp180
a(F-7896689.865354863
F5194672.525636832
tp181
a(F-7894866.4520956725
F5195661.1113792015
tp182
a(F-7893333.471387962
F5194603.118223362
tp183
a(F-7892708.301127663
F5195247.935934431
tp184
a(F-7894082.540241503
F5196558.140545242
tp185
a(F-7895557.746133502
F5196848.153305901
tp186
a(F-7896626.969842572
F5198018.814382922
tp187
a(F-7896425.704203212
F5200565.771580452
tp188
a(F-7896378.170780642
F5201168.455083962
tp189
a(F-7894913.985518242
F5202122.846108771
tp190
a(F-7894594.609899153
F5202330.936742312
tp191
a(F-7892112.073934973
F5201159.885851832
tp192
a(F-7890180.792089202
F5203997.934034242
tp193
a(F-7890100.085458372
F5204116.7373655215
tp194
a(F-7887675.435629412
F5205954.922706051
tp195
a(F-7887202.327793543
F5207394.049266461
tp196
a(F-7886018.445008953
F5208593.566072192
tp197
a(F-7886195.888277273
F5210192.760287502
tp198
a(F-7886669.775349582
F5210032.497481401
tp199
a(F-7888266.542125522
F5210432.031005731
tp200
a(F-7888682.654382103
F5210882.7494252315
tp201
a(F-7888857.648621633
F5211072.223198261
tp202
a(F-7888917.8724661525
F5211951.768982602
tp203
a(F-7888408.363156793
F5213455.045025731
tp204
a(F-7888266.542125522
F5213871.284716701
tp205
a(F-7887438.436433513
F5214671.299865412
tp206
a(F-7886965.328597633
F5214831.491796531
tp207
a(F-7886550.886133412
F5214271.584813521
tp208
a(F-7884836.120697233
F5214991.837038482
tp209
a(F-7883948.681716633
F5214991.837038482
tp210
a(F-7881996.137848122
F5216431.755415111
tp211
a(F-7881641.919228412
F5216271.536002072
tp212
a(F-7880904.761560383
F5216808.071043692
tp213
a(F-7880872.478908052
F5216831.563038991
tp214
a(F-7879984.928607953
F5216991.942664631
tp215
a(F-7879156.934235433
F5216991.942664631
tp216
a(F-7878506.383131242
F5216031.964927352
tp217
a(F-7878210.8298831815
F5216592.128166301
tp218
a(F-7877500.722851412
F5216511.564984182
tp219
a(F-7877205.169603352
F5217472.194487531
tp220
a(F-7876672.728478892
F5217872.046714891
tp221
a(F-7874129.078114262
F5218912.495865422
tp222
a(F-7873655.079722463
F5217952.471041612
tp223
a(F-7872945.084010193
F5217952.471041612
tp224
a(F-7872768.419978303
F5218672.856942722
tp225
a(F-7872235.978853833
F5218672.856942722
tp226
a(F-7872200.245297292
F5218543.023718902
tp227
a(F-7872078.7957328325
F5218107.598574742
tp228
a(F-7872058.424266022
F5218032.293624731
tp229
a(F-7871978.608191122
F5218042.083233842
tp230
a(F-7871406.982605892
F5218111.514448772
tp231
a(F-7871288.983945652
F5218592.426403082
tp232
a(F-7870105.880397501
F5218912.495865422
tp233
a(F-7869632.883881122
F5219872.619538122
tp234
a(F-7868568.669549143
F5220513.459948891
tp235
a(F-7866261.127824492
F5219392.846606182
tp236
a(F-7865433.022132473
F5219472.681520012
tp237
a(F-7863539.143635612
F5221714.664790281
tp238
a(F-7862829.927159772
F5223476.4507367015
tp239
a(F-7862948.037139501
F5224837.798599692
tp240
a(F-7861765.824147273
F5225798.532856311
tp241
a(F-7861291.825755472
F5225798.532856311
tp242
a(F-7861237.501843972
F5226307.427532412
tp243
a(F-7861232.381147393
F5226359.132545932
tp244
a(F-7860523.275991042
F5227080.319268312
tp245
a(F-7859103.173246993
F5227561.091182392
tp246
a(F-7858806.840762502
F5227321.229781762
tp247
a(F-7858157.068894743
F5228282.370971772
tp248
a(F-7858689.621338692
F5228682.687264812
tp249
a(F-7858333.732926623
F5229724.344154372
tp250
a(F-7858866.285370582
F5230124.722436882
tp251
a(F-7858748.175390852
F5231487.645653702
tp252
a(F-7859990.723547082
F5231166.691476872
tp253
a(F-7860463.831382953
F5231487.645653702
tp254
a(F-7861469.380343292
F5231247.2306299005
tp255
a(F-7861765.824147273
F5234533.641321252
tp256
a(F-7861291.825755472
F5235175.340319812
tp257
a(F-7862238.041427223
F5236057.163957611
tp258
a(F-7862770.482551683
F5236217.7240028605
tp259
a(F-7863711.577526852
F5235898.870158962
tp260
a(F-7864190.585295732
F5235736.504865652
tp261
a(F-7866379.126484732
F5233972.398432332
tp262
a(F-7866734.235660362
F5232930.266188041
tp263
a(F-7867384.786764553
F5232930.266188041
tp264
a(F-7869337.330633073
F5230766.268389882
tp265
a(F-7871348.428553741
F5231166.691476872
tp266
a(F-7872590.086154052
F5231808.1583988005
tp267
a(F-7873069.984478863
F5232320.247541461
tp268
a(F-7875370.735714572
F5234774.744761232
tp269
a(F-7876672.728478892
F5235175.340319812
tp270
a(F-7878150.494719172
F5238062.401561301
tp271
a(F-7879624.921374732
F5242169.001678072
tp272
a(F-7880660.192639103
F5245050.229573932
tp273
a(F-7881523.0300122425
F5247450.9783719005
tp274
a(F-7882739.306768652
F5254183.997570521
tp275
a(F-7882961.723111262
F5255414.811140672
tp276
a(F-7883061.131416532
F5255965.101100622
tp277
a(F-7883399.987946513
F5263427.707430612
tp278
a(F-7884236.553919823
F5263262.5901209405
tp279
a(F-7886888.963426953
F5261741.409264881
tp280
a(F-7891004.667640562
F5265003.507317232
tp281
a(F-7892916.468575442
F5265614.918944011
tp282
a(F-7894264.213650483
F5265620.217314562
tp283
a(F-7894265.994762332
F5265624.153248932
tp284
a(F-7896036.753902383
F5265321.0911914315
tp285
a(F-7900010.6370847225
F5262960.0592499515
tp286
a(F-7903472.339289922
F5262263.927642092
tp287
a(F-7904229.979744252
F5262112.601597312
tp288
a(F-7907213.564736503
F5261462.079049492
tp289
a(F-7908682.870695482
F5259903.673715541
tp290
a(F-7909707.121330272
F5257528.592555022
tp291
a(F-7910886.773974203
F5253475.673317992
tp292
a(F-7916641.657689742
F5255199.633804052
tp293
a(F-7918489.672556402
F5255759.286719671
tp294
a(F-7922292.012403432
F5253785.454586902
tp295
a(F-7924044.960424953
F5251662.095482642
tp296
a(F-7924456.063304452
F5251117.804010652
tp297
a(F-7923977.834772002
F5243095.282935802
tp298
a(F-7928664.274014913
F5244469.925157322
tp299
a(F-7931068.663696553
F5243850.540762532
tp300
a(F-7932231.395777882
F5242870.726005472
tp301
asS'44'
p302
(lp303
(F-8003781.553207302
F5239144.205021091
tp304
a(F-8007132.047241203
F5239267.532868552
tp305
a(F-8012986.227942523
F5239427.544508021
tp306
a(F-8023788.448690122
F5239872.723448252
tp307
a(F-8027420.135757762
F5240012.667110132
tp308
a(F-8037725.537617953
F5240370.310479822
tp309
a(F-8046557.403378513
F5240673.767095981
tp310
asS'45'
p311
(lp312
(F-7932231.395777882
F5242870.726005472
tp313
a(F-7936489.811578692
F5236966.085050122
tp314
a(F-7944836.658317863
F5237163.635848271
tp315
a(F-7946775.621208503
F5237237.888264192
tp316
a(F-7951862.9219377525
F5237419.2960492205
tp317
a(F-7954699.565202151
F5237499.889328121
tp318
a(F-7964120.088430023
F5237826.344526421
tp319
a(F-7964186.323527043
F5237826.344526421
tp320
a(F-7973915.869661353
F5238128.510679241
tp321
a(F-7976276.065505153
F5238203.978283121
tp322
a(F-7981797.400929012
F5238384.801152872
tp323
a(F-7989734.146664102
F5238626.608179431
tp324
a(F-7993396.335272212
F5238777.4011365315
tp325
a(F-8003781.553207302
F5239144.205021091
tp326
asS'28'
p327
(lp328
(F-7886240.082115122
F5077022.708141751
tp329
a(F-7886503.352710842
F5079485.655258672
tp330
a(F-7887931.915736193
F5084929.465734102
tp331
a(F-7888749.7800350515
F5087844.2297038715
tp332
a(F-7891115.875811862
F5096626.017431952
tp333
a(F-7893136.4358892515
F5096311.7215954615
tp334
a(F-7893440.449418612
F5097142.085869711
tp335
a(F-7895026.084245473
F5101203.965797582
tp336
a(F-7906677.672707823
F5099476.416547192
tp337
a(F-7905354.417920763
F5102472.275414992
tp338
a(F-7907820.812558772
F5104994.077578271
tp339
a(F-7904630.841230602
F5108214.373551281
tp340
a(F-7900816.590198061
F5111648.2619912205
tp341
a(F-7902341.110624482
F5118364.953215992
tp342
a(F-7903136.933664163
F5118446.913558202
tp343
a(F-7902982.310891442
F5119679.980996372
tp344
a(F-7903531.004661572
F5119858.531300401
tp345
a(F-7903268.513302273
F5121228.771350971
tp346
a(F-7903739.951345782
F5121865.144296462
tp347
a(F-7904930.624619313
F5123385.8155906405
tp348
a(F-7909304.478732073
F5126909.347487902
tp349
a(F-7909791.1675458215
F5129512.876188441
tp350
a(F-7909917.737806852
F5130202.029834842
tp351
a(F-7911476.2106779525
F5139785.575892301
tp352
a(F-7912667.774507412
F5146658.656148181
tp353
asS'29'
p354
(lp355
(F-7879866.039391791
F5168852.450541772
tp356
a(F-7879843.107576682
F5169885.812903661
tp357
a(F-7880214.246758993
F5170329.338109622
tp358
a(F-7880777.412062913
F5170273.896312182
tp359
a(F-7881038.1223103525
F5170717.439866162
tp360
a(F-7881478.056937963
F5170699.158264782
tp361
a(F-7881669.971740092
F5171143.321350972
tp362
a(F-7882123.487345583
F5171068.992999572
tp363
a(F-7882782.610050572
F5171660.639013902
tp364
a(F-7884211.952312362
F5171826.989979281
tp365
a(F-7884343.531950473
F5171964.269214061
tp366
asS'40'
p367
(lp368
(F-8050076.880399433
F5183775.108876222
tp369
a(F-8049881.514693082
F5186568.4092655415
tp370
a(F-8049603.883883042
F5186928.062966912
tp371
a(F-8050191.539474942
F5187742.288335471
tp372
a(F-8049684.479194383
F5188111.144926832
tp373
a(F-8050061.629629193
F5189505.184804611
tp374
a(F-8049571.601230713
F5190355.223136852
tp375
a(F-8050232.282408572
F5191433.911460482
tp376
a(F-8049964.781672202
F5191715.204800532
tp377
a(F-8049979.2532060025
F5193222.137956571
tp378
a(F-8049563.0296299225
F5193534.4292621715
tp379
a(F-8049152.038069913
F5195274.829344332
tp380
a(F-8048686.611278913
F5195303.976479261
tp381
a(F-8048722.233515962
F5195919.092359531
tp382
a(F-8047577.423872642
F5196739.810698791
tp383
a(F-8047575.7540802825
F5197325.717235531
tp384
a(F-8047216.414764002
F5197584.194986042
tp385
a(F-8047410.889914423
F5197880.100672102
tp386
a(F-8047056.782614202
F5197837.119376541
tp387
a(F-8046604.936801073
F5198443.083718142
tp388
a(F-8047496.717241822
F5204200.953300262
tp389
a(F-8042323.589185162
F5209324.2139729615
tp390
a(F-8045026.0924631525
F5212311.798625942
tp391
a(F-8045276.672636932
F5214397.895930242
tp392
a(F-8045897.501437082
F5218922.888893292
tp393
a(F-8045620.649863482
F5218814.289855042
tp394
a(F-8045517.011417553
F5219199.287435791
tp395
a(F-8045231.588243162
F5218744.702786662
tp396
a(F-8044750.131445482
F5218958.436148661
tp397
a(F-8044192.086838132
F5218688.973257882
tp398
a(F-8044795.104519762
F5222445.1356897205
tp399
a(F-8044062.176992372
F5222470.450064011
tp400
a(F-8043876.162123263
F5222918.284766462
tp401
a(F-8043251.103182452
F5223137.237357111
tp402
a(F-8043409.844776322
F5224094.3300230615
tp403
a(F-8040444.182222102
F5224652.566438582
tp404
a(F-8040382.177265732
F5225658.199788712
tp405
a(F-8040842.483360162
F5226121.713931872
tp406
a(F-8040149.408210482
F5226892.328971442
tp407
a(F-8040518.877600423
F5228124.812403772
tp408
a(F-8040084.063669382
F5228216.784067011
tp409
a(F-8040606.3747201925
F5231819.169150322
tp410
a(F-8041989.853351772
F5231643.602006471
tp411
a(F-8042134.234731322
F5232799.0273475805
tp412
a(F-8043707.958372673
F5232586.635535202
tp413
a(F-8043819.2778634615
F5233710.496665752
tp414
a(F-8045333.556896722
F5233597.802724042
tp415
a(F-8046557.403378513
F5240673.767095981
tp416
asS'41'
p417
(lp418
(F-7959177.169080323
F5134933.0216350015
tp419
a(F-7954735.298758692
F5135022.440841972
tp420
a(F-7946197.316453833
F5135171.723545602
tp421
a(F-7946185.405268323
F5130127.427528742
tp422
asS'1'
p423
(lp424
(F-7864094.516575182
F5090277.153057821
tp425
a(F-7862136.963329582
F5089496.119134202
tp426
a(F-7861968.759578993
F5087620.5337139405
tp427
a(F-7862474.1500671925
F5087095.774923181
tp428
a(F-7863373.500233313
F5087245.342329692
tp429
a(F-7864328.955422793
F5086796.053100472
tp430
a(F-7864891.230170782
F5085970.604607722
tp431
a(F-7866071.7733706515
F5085145.821942842
tp432
a(F-7866071.7733706515
F5084620.754610291
tp433
a(F-7865228.416908402
F5084770.876946452
tp434
a(F-7864835.125147422
F5084020.882938482
tp435
a(F-7865228.416908402
F5082596.488191642
tp436
a(F-7864114.999361482
F5081606.040795522
tp437
a(F-7863373.500233313
F5080946.987406922
tp438
a(F-7863541.703983903
F5080047.839288692
tp439
a(F-7864891.230170782
F5079673.095705422
tp440
a(F-7865172.311885042
F5078398.781404082
tp441
a(F-7864328.955422793
F5078023.954536162
tp442
a(F-7863879.669957941
F5077049.859696361
tp443
a(F-7864610.927692972
F5074577.457808682
tp444
a(F-7865004.108134452
F5074428.089931232
tp445
a(F-7865060.213157812
F5073528.9657060215
tp446
a(F-7863767.571230723
F5069335.264641222
tp447
a(F-7864835.125147422
F5067763.214939541
tp448
a(F-7865172.311885042
F5067763.214939541
tp449
a(F-7865285.301168193
F5065368.3586199405
tp450
a(F-7866633.936799153
F5063871.638907551
tp451
a(F-7867365.194534173
F5062524.925860332
tp452
a(F-7867758.486295152
F5062299.899665432
tp453
a(F-7868488.853474243
F5062749.216647451
tp454
a(F-7869823.128890892
F5061565.897959352
tp455
asS'3'
p456
(lp457
(F-7946185.405268323
F5130127.427528742
tp458
a(F-7946219.357713012
F5119882.378007272
tp459
a(F-7946230.378342593
F5116440.430792612
tp460
a(F-7941443.751557973
F5117215.050104072
tp461
a(F-7941677.299849663
F5114712.181474532
tp462
a(F-7940965.634345023
F5111688.468385021
tp463
a(F-7941833.592414732
F5109232.022788032
tp464
a(F-7941053.910701222
F5107847.594124212
tp465
a(F-7942133.375803443
F5106731.267013572
tp466
a(F-7942389.855910232
F5106002.302106742
tp467
a(F-7941465.792817153
F5103799.823981031
tp468
a(F-7941666.279220073
F5102311.756276062
tp469
a(F-7940908.638765732
F5101746.464953861
tp470
a(F-7940352.375270243
F5100779.597539421
tp471
a(F-7940241.167098943
F5099664.104005962
tp472
a(F-7939117.508158873
F5099010.039734232
tp473
a(F-7935400.995639242
F5096918.021586661
tp474
a(F-7932838.643600162
F5095471.3213801915
tp475
a(F-7928893.592165943
F5089344.8820342515
tp476
a(F-7928875.781047412
F5089437.733602381
tp477
a(F-7926936.038920343
F5086302.676362952
tp478
a(F-7926927.467319553
F5086288.419018272
tp479
a(F-7926145.336577242
F5085013.809914822
tp480
a(F-7925524.507777083
F5084001.580767171
tp481
a(F-7923332.404364383
F5083452.227742492
tp482
a(F-7923342.645757532
F5082962.291072932
tp483
a(F-7918533.866394252
F5081774.819262082
tp484
a(F-7918845.560968473
F5077070.334690552
tp485
a(F-7919378.113412423
F5076401.3593583405
tp486
a(F-7919493.551724382
F5075241.706077881
tp487
a(F-7919179.296801873
F5073436.2696813615
tp488
a(F-7918392.045362983
F5071955.184060651
tp489
a(F-7917966.582269162
F5067387.7699621115
tp490
a(F-7917272.616563562
F5057598.824929842
tp491
a(F-7917161.408392262
F5057628.290126901
tp492
a(F-7916667.149853132
F5057490.441170712
tp493
a(F-7916473.453939153
F5057961.445686131
tp494
a(F-7915310.721857822
F5058561.303162912
tp495
a(F-7914167.582006861
F5058619.4991981005
tp496
a(F-7913085.556556352
F5059361.863053811
tp497
a(F-7912597.197950242
F5059361.863053821
tp498
a(F-7911294.425949492
F5059253.311123332
tp499
a(F-7908078.962457922
F5057358.812827712
tp500
a(F-7906247.088917431
F5058495.851558682
tp501
a(F-7906187.532989861
F5058615.056740122
tp502
a(F-7906225.826894692
F5058672.068441661
tp503
a(F-7906117.067752182
F5059093.521380371
tp504
a(F-7905902.221134952
F5059183.8563085515
tp505
a(F-7905840.216178583
F5059308.105258171
tp506
a(F-7904333.506870692
F5059849.399408252
tp507
a(F-7902879.563001443
F5059581.636374242
tp508
a(F-7901703.249942233
F5059432.503924702
tp509
a(F-7901870.563136892
F5061148.334774911
tp510
a(F-7901844.291737063
F5061183.291472322
tp511
a(F-7901851.082226003
F5061257.945188352
tp512
a(F-7901563.989259253
F5061563.083531032
tp513
a(F-7900629.796092513
F5062557.665467242
tp514
a(F-7899944.401987702
F5062701.8099636715
tp515
a(F-7899856.014312012
F5062720.328171401
tp516
a(F-7899756.717326223
F5062588.775605362
tp517
a(F-7899126.537688842
F5061748.393194402
tp518
a(F-7899083.234406922
F5061690.770538261
tp519
a(F-7898757.068298892
F5061745.578712082
tp520
a(F-7898721.334742351
F5061771.649738021
tp521
a(F-7897943.4341406915
F5062341.230608261
tp522
a(F-7897938.313444112
F5062403.893993181
tp523
a(F-7897861.057717503
F5063370.266027361
tp524
a(F-7897817.754435583
F5063410.416368992
tp525
a(F-7897408.321348443
F5063784.519027511
tp526
a(F-7897210.506613303
F5063966.612339032
tp527
a(F-7897137.481027341
F5063966.612339032
tp528
a(F-7896712.797169972
F5063966.612339032
tp529
a(F-7895907.623293062
F5063966.612339032
tp530
a(F-7896357.799313833
F5064994.1936514005
tp531
a(F-7896677.063613423
F5065722.828678151
tp532
a(F-7896762.000384902
F5065917.259338882
tp533
a(F-7896694.986051442
F5066699.171562692
tp534
a(F-7896707.676473393
F5067411.633177092
tp535
a(F-7897495.039231772
F5068410.088208751
tp536
a(F-7897489.9185351925
F5068429.358711011
tp537
a(F-7897291.213244132
F5069169.079062972
tp538
a(F-7896655.912910172
F5069778.687484071
tp539
a(F-7896311.935683623
F5070108.414170571
tp540
a(F-7895677.525905591
F5071811.492337072
tp541
a(F-7895693.667231753
F5071978.3172966605
tp542
a(F-7896058.795161562
F5074103.256281412
tp543
a(F-7895894.932871113
F5074126.988044032
tp544
a(F-7895948.366226692
F5074699.683122372
tp545
a(F-7895093.209898422
F5074916.992934811
tp546
a(F-7893750.474200473
F5071934.2752227215
tp547
a(F-7892733.014054622
F5071446.118837052
tp548
a(F-7892406.847946593
F5071662.761087572
tp549
a(F-7893221.261341242
F5074374.246873181
tp550
a(F-7894116.492686203
F5075676.355483602
tp551
a(F-7893343.601461623
F5076435.778761952
tp552
a(F-7893285.826645901
F5076438.152518521
tp553
a(F-7892771.1966399625
F5076458.477833472
tp554
a(F-7891953.332341103
F5076560.401784272
tp555
a(F-7891872.6257102825
F5076679.2402613005
tp556
a(F-7891489.5753424615
F5077518.5700840615
tp557
a(F-7891389.387800743
F5077738.170122482
tp558
a(F-7890276.749490263
F5077333.546156851
tp559
a(F-7889599.036430312
F5077086.655369712
tp560
a(F-7889150.641521403
F5076598.234096842
tp561
a(F-7889150.641521403
F5076202.115003751
tp562
a(F-7888808.334087212
F5074215.389381611
tp563
a(F-7888793.862553412
F5074163.327420451
tp564
a(F-7888499.1998612825
F5073452.5841161115
tp565
a(F-7888564.655721863
F5073354.697927951
tp566
a(F-7888825.365969303
F5072964.349706582
tp567
a(F-7888814.345339713
F5072938.989491812
tp568
a(F-7888747.998923202
F5072783.4186617015
tp569
a(F-7887807.015267522
F5070579.006155491
tp570
a(F-7887718.738911332
F5070510.506439981
tp571
a(F-7887435.876085222
F5070289.887335972
tp572
a(F-7887349.269521382
F5070291.073446491
tp573
a(F-7887120.841926273
F5071610.119976882
tp574
a(F-7887074.978296073
F5071934.2752227215
tp575
a(F-7886927.146012292
F5071964.229742382
tp576
a(F-7886353.071398273
F5072078.413678542
tp577
a(F-7886261.344137863
F5072096.653577281
tp578
a(F-7886219.710648303
F5072367.586928321
tp579
a(F-7887074.978296073
F5073669.272129831
tp580
a(F-7887213.348423122
F5074575.2328478815
tp581
a(F-7887499.550833953
F5076453.433590662
tp582
a(F-7887521.703412623
F5076598.234096842
tp583
a(F-7886323.349094233
F5077108.762516222
tp584
a(F-7886240.082115122
F5077022.708141751
tp585
asS'2'
p586
(lp587
(F-8155868.245279902
F5244358.1580354115
tp588
a(F-8160534.313056002
F5227302.837144912
tp589
a(F-8165615.713852243
F5208790.365934612
tp590
a(F-8169064.725635482
F5196083.470674052
tp591
a(F-8172111.985376461
F5184991.559912311
tp592
a(F-8174385.574656423
F5176667.746359472
tp593
a(F-8177602.707940353
F5164887.564621391
tp594
a(F-8180167.620327713
F5155507.324281912
tp595
a(F-8182937.137939163
F5145248.6985482415
tp596
a(F-8181683.569153341
F5139783.1861803215
tp597
a(F-8180619.466140842
F5139778.108044381
tp598
a(F-8174990.262130413
F5139912.530212961
tp599
a(F-8164327.302065803
F5139577.523864831
tp600
a(F-8159352.100063772
F5139389.489410692
tp601
a(F-8152302.904628782
F5139096.169131951
tp602
a(F-8145543.3625088325
F5138836.907896272
tp603
a(F-8140537.547646842
F5138645.005414092
tp604
a(F-8132301.018523042
F5138317.361496302
tp605
asS'5'
p606
(lp607
(F-7869823.128890892
F5061565.897959352
tp608
a(F-7869384.864055642
F5060679.986666662
tp609
a(F-7867524.938003462
F5060908.233133492
tp610
a(F-7867076.431775052
F5060205.293023832
tp611
asS'4'
p612
(lp613
(F-7860055.288851742
F5055088.5473607415
tp614
a(F-7862516.562793183
F5053339.916367571
tp615
a(F-7863458.437004783
F5052624.067902941
tp616
a(F-7864712.005790612
F5052133.497844412
tp617
a(F-7865375.358636242
F5052133.497844412
tp618
a(F-7865745.607262622
F5052133.497844412
tp619
a(F-7866262.018380412
F5051741.059988252
tp620
a(F-7867146.897012732
F5049486.335392352
tp621
a(F-7868916.8769163415
F5049192.235190251
tp622
a(F-7869064.709200113
F5048604.209942371
tp623
a(F-7870465.998950222
F5048212.065347541
tp624
a(F-7871645.651594162
F5044586.1948418515
tp625
a(F-7871675.373898203
F5044552.334051982
tp626
a(F-7873121.748042082
F5042920.6526482515
tp627
a(F-7873932.821852002
F5042920.6526482515
tp628
a(F-7875187.281193742
F5039982.969725781
tp629
a(F-7876735.512671702
F5038611.404968192
tp630
a(F-7877882.103426873
F5036328.019252981
tp631
a(F-7877915.276635132
F5036262.129211612
tp632
a(F-7878727.129681482
F5035674.309711552
tp633
a(F-7879907.672881342
F5035380.782838631
tp634
a(F-7883078.942535063
F5036751.292360291
tp635
a(F-7883816.211522583
F5036065.939136152
tp636
a(F-7885366.112792902
F5036262.129211612
tp637
a(F-7885955.549496652
F5035282.696353542
tp638
a(F-7881657.281318143
F5030160.1122252215
tp639
a(F-7881448.334633922
F5030324.585304492
tp640
a(F-7879046.505300572
F5028680.720010992
tp641
a(F-7878547.126064871
F5028660.3487803405
tp642
a(F-7877840.469937312
F5029382.373039031
tp643
a(F-7877817.538122212
F5029434.190822441
tp644
a(F-7877913.495523273
F5030189.935679321
tp645
a(F-7877915.276635132
F5030194.512554282
tp646
a(F-7876725.3825980425
F5031861.083740651
tp647
a(F-7876587.791707412
F5032053.7910231715
tp648
a(F-7876091.752056442
F5032382.805240181
tp649
a(F-7874072.973090903
F5033721.868284121
tp650
a(F-7873932.821852002
F5033814.917030442
tp651
a(F-7873371.437659922
F5033964.240009061
tp652
a(F-7871440.155814153
F5034629.649228621
tp653
a(F-7864912.492193522
F5035281.071435321
tp654
a(F-7859960.2220066115
F5035694.105004181
tp655
a(F-7852346.191475332
F5035696.911802731
tp656
a(F-7848506.448279393
F5035394.225492672
tp657
a(F-7847451.696104132
F5035331.148587682
tp658
a(F-7846260.132274683
F5035354.783913091
tp659
a(F-7845091.500260332
F5035576.220210392
tp660
a(F-7843304.488474621
F5035412.838429522
tp661
a(F-7843107.452975922
F5035416.826920711
tp662
a(F-7842580.911784473
F5035655.253088001
tp663
a(F-7842559.649761732
F5035670.468838622
tp664
a(F-7842180.050298123
F5041726.934303132
tp665
a(F-7842149.437438153
F5043348.210160062
tp666
a(F-7842607.294503793
F5046328.783154282
tp667
a(F-7842788.188676322
F5046305.564294961
tp668
a(F-7844143.614796223
F5045997.069404211
tp669
a(F-7844209.849893252
F5045930.521000561
tp670
a(F-7844881.6630201815
F5044855.902544682
tp671
a(F-7844936.877487623
F5042827.6629057815
tp672
a(F-7844942.888740122
F5042588.466112552
tp673
a(F-7844944.558532482
F5042529.3330959715
tp674
a(F-7845090.609704402
F5042464.435032281
tp675
a(F-7846216.828992763
F5041522.206289821
tp676
a(F-7846862.259400382
F5040766.007185321
tp677
a(F-7848189.744328092
F5041059.847565831
tp678
a(F-7848193.974468742
F5041073.298222441
tp679
a(F-7848853.876410162
F5043312.727479462
tp680
a(F-7849826.363481732
F5043578.259408831
tp681
a(F-7851361.904537732
F5043997.862241831
tp682
a(F-7852688.498909523
F5044782.560221101
tp683
a(F-7853435.897970702
F5045691.246356192
tp684
a(F-7853574.268097762
F5045859.980199911
tp685
a(F-7854164.595357442
F5047231.996306131
tp686
a(F-7854138.212638122
F5047595.997507152
tp687
a(F-7854032.904399833
F5049026.9927316215
tp688
a(F-7853939.507347052
F5050299.596336851
tp689
a(F-7853963.218398592
F5050847.036827691
tp690
a(F-7854777.743112722
F5052836.286128631
tp691
a(F-7855049.473989753
F5053310.464439111
tp692
a(F-7855802.884303442
F5053639.176805332
tp693
a(F-7856415.141502802
F5053338.140369312
tp694
a(F-7857659.359451402
F5053626.152416461
tp695
a(F-7858800.829509993
F5053877.911088742
tp696
a(F-7858943.541097193
F5055008.3170380015
tp697
a(F-7859549.119127112
F5055272.102671291
tp698
a(F-7860055.288851742
F5055088.5473607415
tp699
asS'7'
p700
(lp701
(F-7869823.128890892
F5061565.897959352
tp702
a(F-7870281.765192962
F5061158.9995164415
tp703
a(F-7871129.3517958615
F5061060.795473362
tp704
a(F-7872347.187025143
F5060177.004696412
tp705
a(F-7872494.128752983
F5059588.448835891
tp706
a(F-7873674.671952852
F5058459.7200966915
tp707
a(F-7874596.174697633
F5058656.223596841
tp708
a(F-7875371.626270503
F5058165.342640832
tp709
a(F-7877178.007647602
F5056301.558272102
tp710
a(F-7878063.888155332
F5056056.397401042
tp711
a(F-7878727.129681482
F5054683.701987581
tp712
a(F-7880018.101816212
F5054683.701987581
tp713
a(F-7880718.746691261
F5053408.1445517605
tp714
a(F-7881677.652784953
F5053163.206162971
tp715
a(F-7881861.8865422215
F5052084.368237991
tp716
a(F-7882231.355932162
F5051839.315913091
tp717
a(F-7883705.782587722
F5051839.315913091
tp718
a(F-7883963.932486873
F5051545.291038932
tp719
a(F-7885070.559544843
F5051790.187823981
tp720
a(F-7886914.455590343
F5050614.000881612
tp721
a(F-7887836.737571572
F5050564.8791112015
tp722
a(F-7888316.635896383
F5050172.062015962
tp723
a(F-7888353.148689362
F5049633.536839852
tp724
a(F-7890491.707426983
F5048849.179070051
tp725
a(F-7891267.047680362
F5048064.885856332
tp726
a(F-7892741.474335922
F5048309.693198661
tp727
a(F-7893221.261341242
F5047085.275657151
tp728
a(F-7893848.991949822
F5046889.010739672
tp729
a(F-7894807.786724022
F5047036.172073411
tp730
a(F-7895102.560735642
F5047624.1005753605
tp731
a(F-7895729.289468812
F5047869.0445101205
tp732
a(F-7896245.700586602
F5046938.113565281
tp733
a(F-7897204.495360802
F5046545.889620351
tp734
a(F-7897573.964750753
F5045516.896117772
tp735
a(F-7898126.888661513
F5045516.896117772
tp736
a(F-7898163.401454492
F5044537.6955818115
tp737
a(F-7895877.121752582
F5045418.853236802
tp738
a(F-7895212.878351022
F5046545.889620351
tp739
a(F-7892815.390477803
F5046251.436473061
tp740
a(F-7889017.280771432
F5046545.889620351
tp741
a(F-7887763.711985613
F5047085.275657151
tp742
a(F-7886840.5394484615
F5048113.846821711
tp743
a(F-7884258.595179003
F5049780.296727762
tp744
a(F-7883263.287611822
F5050025.296093512
tp745
a(F-7882710.363701043
F5049633.536839852
tp746
a(F-7881198.645016072
F5050123.534323681
tp747
a(F-7880386.680650231
F5050025.296093512
tp748
a(F-7878874.961965252
F5051692.080380161
tp749
a(F-7877067.578712732
F5052231.165886882
tp750
a(F-7876587.791707412
F5053163.206162971
tp751
a(F-7877104.091505713
F5053898.188237922
tp752
a(F-7876735.512671702
F5054830.5397093715
tp753
a(F-7875371.626270503
F5054830.5397093715
tp754
a(F-7874117.166928752
F5056007.247551351
tp755
a(F-7872347.187025143
F5056301.558272102
tp756
a(F-7871497.930629873
F5056792.343116402
tp757
a(F-7870908.493926123
F5057528.197668031
tp758
a(F-7871277.072760141
F5057871.122360091
tp759
a(F-7871203.156618251
F5058361.988140921
tp760
a(F-7868216.232041292
F5059097.964061702
tp761
a(F-7867076.431775052
F5060205.293023832
tp762
asS'6'
p763
(lp764
(F-7867076.431775052
F5060205.293023832
tp765
a(F-7866454.712418982
F5060809.2910985015
tp766
a(F-7865481.446110972
F5060271.9412481515
tp767
a(F-7865346.415568642
F5060295.786615131
tp768
a(F-7865263.148589523
F5060480.4791522715
tp769
a(F-7864669.593064623
F5061795.943258322
tp770
a(F-7864361.238075122
F5062480.779419482
tp771
a(F-7864075.035664292
F5062732.327989262
tp772
a(F-7863393.871700122
F5063330.708476452
tp773
a(F-7863053.345377793
F5063629.690597891
tp774
a(F-7862521.683489762
F5063779.481507832
tp775
a(F-7860353.402448092
F5064389.9297924405
tp776
a(F-7860331.361188913
F5064396.153010702
tp777
a(F-7859849.793071743
F5064307.398449682
tp778
a(F-7859459.061659052
F5064242.944488001
tp779
a(F-7859183.100641383
F5064384.891952072
tp780
a(F-7858814.410487873
F5064674.868461212
tp781
a(F-7858638.637011913
F5064664.644305142
tp782
a(F-7857030.070369943
F5064571.886521851
tp783
a(F-7852959.339230623
F5065648.732673872
tp784
a(F-7852871.0628744215
F5065671.998757031
tp785
a(F-7852687.608353592
F5065559.521850852
tp786
a(F-7851195.370579513
F5065069.914561702
tp787
a(F-7847331.025776112
F5065747.132293312
tp788
a(F-7845619.711244142
F5066554.373640052
tp789
a(F-7843946.579297522
F5068540.2389754215
tp790
a(F-7842930.900263523
F5070220.351865501
tp791
a(F-7842528.257665322
F5071032.569761891
tp792
a(F-7841097.2456111815
F5073646.728040382
tp793
a(F-7840850.116341613
F5073662.5978872515
tp794
a(F-7840680.242798662
F5073943.810038912
tp795
a(F-7839858.037039662
F5073724.742683012
tp796
a(F-7838668.254322063
F5073798.901682601
tp797
a(F-7834609.434368252
F5074362.380675541
tp798
a(F-7833457.722916513
F5075199.280614571
tp799
a(F-7833039.940867562
F5076734.134941431
tp800
a(F-7832411.431022542
F5077709.829561771
tp801
a(F-7831156.192444363
F5078407.8332256405
tp802
a(F-7828643.934176132
F5077431.324992282
tp803
a(F-7827597.530962682
F5076594.376677671
tp804
a(F-7825818.311541332
F5077012.619059272
tp805
a(F-7825608.474301182
F5077709.829561771
tp806
a(F-7823620.308195611
F5077849.752628851
tp807
a(F-7822887.380668233
F5077431.324992282
tp808
a(F-7822764.261311412
F5076828.643553241
tp809
a(F-7822259.761379143
F5074362.380675541
tp810
a(F-7821421.414293972
F5074223.250614221
tp811
a(F-7820898.324006743
F5075757.353783612
tp812
a(F-7820370.001703433
F5076241.132742492
tp813
a(F-7819960.679935783
F5076616.334315392
tp814
a(F-7819223.522267752
F5077291.556465291
tp815
a(F-7813707.307540473
F5079626.643373202
tp816
a(F-7813778.663334073
F5079902.392497381
tp817
a(F-7812773.893610172
F5080021.272820622
tp818
a(F-7812629.512230612
F5080082.420333401
tp819
a(F-7809986.453560713
F5080488.942576611
tp820
a(F-7809903.297901082
F5080619.704254162
tp821
a(F-7808106.935278153
F5080336.661668042
tp822
a(F-7805531.113580692
F5081094.231400231
tp823
a(F-7805491.149883492
F5080987.6573944315
tp824
a(F-7802162.697108772
F5082175.772934031
tp825
a(F-7796694.127123551
F5082580.603402291
tp826
a(F-7796594.718818283
F5082841.740837952
tp827
a(F-7794969.120294222
F5083108.378632311
tp828
a(F-7794184.429203623
F5083370.7183419205
tp829
a(F-7793998.414334503
F5083432.332851511
tp830
a(F-7792114.665911303
F5082594.261350412
tp831
a(F-7789812.244883222
F5079942.464350071
tp832
a(F-7789917.553121522
F5077291.556465291
tp833
a(F-7790859.427333122
F5074362.380675541
tp834
a(F-7791228.785403572
F5073869.649907902
tp835
a(F-7791373.166783132
F5073677.281227132
tp836
a(F-7791421.5907616215
F5071793.994422162
tp837
a(F-7791381.738383923
F5070737.358037412
tp838
a(F-7791456.433762242
F5070412.057497261
tp839
a(F-7791785.939454992
F5068985.255403302
tp840
a(F-7791800.410988793
F5068924.772266861
tp841
a(F-7791812.322174313
F5068903.870095962
tp842
a(F-7793085.371871022
F5066609.802676422
tp843
a(F-7793579.741729633
F5065719.4202492805
tp844
a(F-7794189.549900202
F5065719.4202492805
tp845
a(F-7794220.051440673
F5065657.327780762
tp846
a(F-7794248.103952353
F5065510.322884611
tp847
a(F-7793761.415138612
F5064510.394240922
tp848
a(F-7793666.348293473
F5064397.338386071
tp849
a(F-7792210.6233123625
F5064502.392864932
tp850
a(F-7791113.347091622
F5066140.592755762
tp851
a(F-7790874.678103353
F5070789.9943128815
tp852
a(F-7789403.702352012
F5075544.475114411
tp853
a(F-7788697.936780383
F5077577.920944882
tp854
a(F-7786927.177640332
F5078979.599381691
tp855
a(F-7785770.345492012
F5081513.117433131
tp856
a(F-7784892.257348632
F5083990.296439051
tp857
a(F-7784434.400283002
F5088273.812102132
tp858
a(F-7784430.170142353
F5089952.964910011
tp859
a(F-7784491.395862292
F5091039.974963692
tp860
a(F-7784754.666458012
F5095713.488143922
tp861
a(F-7785101.983269292
F5101877.074001862
tp862
a(F-7785236.1232556915
F5102594.265830871
tp863
a(F-7785515.646497082
F5104090.412803352
tp864
a(F-7786672.367325913
F5110272.412911432
tp865
a(F-7787672.795589672
F5114479.805886442
tp866
a(F-7788137.443144242
F5116434.1733072605
tp867
a(F-7789602.407643083
F5120918.277472311
tp868
a(F-7792233.555127473
F5127394.704228842
tp869
a(F-7792793.269527183
F5128772.453952521
tp870
a(F-7795448.128063103
F5133588.103862192
tp871
a(F-7796301.725918513
F5134943.919088952
tp872
a(F-7799022.819551463
F5138312.881485251
tp873
a(F-7803942.918405543
F5141683.497399322
tp874
a(F-7807186.323089293
F5143227.988157992
tp875
a(F-7809594.942911592
F5143834.469511352
tp876
a(F-7810536.037886753
F5144071.6040367205
tp877
a(F-7812839.238151273
F5144492.842603911
tp878
a(F-7816292.591394663
F5144492.842603911
tp879
a(F-7817758.446449423
F5143930.846716942
tp880
a(F-7819118.993265902
F5142806.806187662
tp881
a(F-7819747.503110922
F5141823.772953082
tp882
a(F-7819432.357632482
F5141261.9363744315
tp883
a(F-7816816.572237823
F5139296.145663011
tp884
a(F-7815873.807470292
F5137049.454064832
tp885
a(F-7813437.246455812
F5135007.064857822
tp886
a(F-7813400.622343342
F5135015.573894491
tp887
a(F-7814408.842971452
F5136908.652355032
tp888
a(F-7813885.6413647225
F5138593.184947321
tp889
a(F-7812629.512230612
F5140278.317583612
tp890
a(F-7811163.657175852
F5141261.9363744315
tp891
a(F-7809384.3264350025
F5141683.497399322
tp892
a(F-7808807.691472702
F5141339.9132844815
tp893
a(F-7804675.845932922
F5138874.542149002
tp894
a(F-7803105.461876303
F5137189.511299671
tp895
a(F-7802058.279426412
F5135083.945029411
tp896
a(F-7801326.131135462
F5131434.9930332815
tp897
a(F-7801175.849822892
F5125914.250351441
tp898
a(F-7801116.405214812
F5123721.439877731
tp899
a(F-7800278.948685572
F5114753.145712421
tp900
a(F-7799860.2760807015
F5113913.339858262
tp901
a(F-7799650.550160042
F5114053.054066922
tp902
a(F-7799441.603475823
F5118815.743901251
tp903
a(F-7799232.656791602
F5119796.530144382
tp904
a(F-7798499.729264223
F5120357.685247671
tp905
a(F-7798499.729264223
F5121478.455785741
tp906
a(F-7796510.672602732
F5121758.706480272
tp907
a(F-7795358.9611509815
F5119096.064596891
tp908
a(F-7795255.322705052
F5116994.532656722
tp909
a(F-7794209.030811092
F5115874.294134402
tp910
a(F-7793606.903685382
F5114492.318272522
tp911
a(F-7793476.103283701
F5114193.366150912
tp912
a(F-7792952.122440543
F5105093.927936522
tp913
a(F-7793845.572673653
F5102907.580129832
tp914
a(F-7793375.025186062
F5102596.646147311
tp915
a(F-7793969.582586393
F5102252.101571791
tp916
a(F-7794975.910783162
F5100797.743987542
tp917
a(F-7795206.119490122
F5100684.254887702
tp918
a(F-7795255.322705052
F5100617.917197392
tp919
a(F-7799755.858398332
F5098240.776399462
tp920
a(F-7800383.477687423
F5098520.4877706915
tp921
a(F-7803423.946939463
F5097464.289789172
tp922
a(F-7806177.323224743
F5096429.767152942
tp923
a(F-7808180.0721836025
F5096625.422727991
tp924
a(F-7812693.186979343
F5095259.188977331
tp925
a(F-7813168.855163502
F5095356.855513092
tp926
a(F-7813362.4397579925
F5095305.123341311
tp927
a(F-7816102.346384892
F5094149.547840751
tp928
a(F-7817442.521734552
F5093495.864313321
tp929
a(F-7817905.388177273
F5093149.421412902
tp930
a(F-7818912.6069299625
F5092298.453288831
tp931
a(F-7819199.699896722
F5091863.041595012
tp932
a(F-7819060.439213742
F5091562.128822332
tp933
a(F-7820194.228227473
F5091041.758024101
tp934
a(F-7820266.363257503
F5090618.884925272
tp935
a(F-7821492.770087572
F5089783.446558481
tp936
a(F-7822220.688237873
F5090213.711149821
tp937
a(F-7822954.506321182
F5091385.746369962
tp938
a(F-7822991.798350593
F5091391.987310562
tp939
a(F-7824914.619915073
F5092804.180108302
tp940
a(F-7826488.343556412
F5092930.058713492
tp941
a(F-7829376.861703512
F5092929.464241542
tp942
a(F-7835057.829277172
F5093609.267294111
tp943
a(F-7835078.200743982
F5093611.496724121
tp944
a(F-7836388.653789602
F5093768.004021572
tp945
a(F-7839529.421902842
F5094466.4474942405
tp946
a(F-7843506.644669902
F5096143.873455931
tp947
a(F-7844124.133885331
F5096502.319812562
tp948
a(F-7845676.595503943
F5097404.219560642
tp949
a(F-7845914.485255762
F5097542.054537131
tp950
a(F-7846215.047880913
F5097797.805439802
tp951
a(F-7847440.675474543
F5098840.359227932
tp952
a(F-7850254.386923833
F5101232.376690022
tp953
a(F-7850519.327311922
F5101457.138117482
tp954
a(F-7852139.805139402
F5103999.054167662
tp955
a(F-7852257.024563203
F5104152.311012262
tp956
asS'9'
p957
(lp958
(F-8123633.126372423
F5215703.411711412
tp959
a(F-8121317.903602913
F5226668.614908981
tp960
a(F-8120930.623094442
F5228614.232713022
tp961
a(F-8121445.253100372
F5230552.264015771
tp962
a(F-8121503.918472022
F5232344.985403272
tp963
a(F-8122112.836086662
F5232461.887773712
tp964
a(F-8122428.760801533
F5232027.923396441
tp965
a(F-8123706.931194823
F5231517.056951681
tp966
a(F-8125126.143382943
F5232461.887773712
tp967
a(F-8125916.066489612
F5233460.821831562
tp968
a(F-8125143.954501472
F5233568.384851381
tp969
a(F-8125079.500516303
F5234195.684560002
tp970
a(F-8123722.293284553
F5234279.719983291
tp971
a(F-8123557.540438172
F5235710.098138772
tp972
a(F-8122272.468236463
F5235558.6004224615
tp973
a(F-8121215.155712902
F5236024.418499042
tp974
a(F-8120959.454842553
F5236595.443380491
tp975
a(F-8121224.506550133
F5237179.180512312
tp976
a(F-8120766.760803993
F5238162.018219792
tp977
a(F-8126140.263944073
F5237609.159233222
tp978
a(F-8128988.818393983
F5237814.119229312
tp979
a(F-8128923.362533391
F5243631.704496792
tp980
asS'8'
p981
(lp982
(F-8128923.362533391
F5243631.704496792
tp983
a(F-8131720.932656523
F5243684.714051112
tp984
a(F-8142234.501964492
F5244002.626694931
tp985
a(F-8144581.116830413
F5244062.585785091
tp986
a(F-8155868.245279902
F5244358.1580354115
tp987
asS'39'
p988
(lp989
(F-8039667.840093313
F5169032.385550712
tp990
a(F-8042543.556498972
F5168565.550483011
tp991
a(F-8043718.199765823
F5166732.293924772
tp992
a(F-8044911.433387643
F5166641.524223522
tp993
a(F-8045162.792797853
F5167775.159974402
tp994
a(F-8045959.506393452
F5167209.373535691
tp995
a(F-8046363.707464523
F5167487.094467312
tp996
a(F-8052419.265124703
F5165279.934265151
tp997
a(F-8053523.331834381
F5164719.539582921
tp998
a(F-8053580.216094183
F5163902.669254282
tp999
a(F-8054167.983005572
F5163358.827264762
tp1000
a(F-8054679.273426781
F5163612.476519701
tp1001
a(F-8055188.782736143
F5163042.449102102
tp1002
a(F-8055641.5191052025
F5163272.582089721
tp1003
a(F-8055520.069540742
F5161842.465077691
tp1004
a(F-8055124.328750972
F5161722.549961011
tp1005
a(F-8055216.835247823
F5160922.556202232
tp1006
a(F-8054911.151926103
F5160714.185779932
tp1007
a(F-8059089.640332523
F5160136.850215182
tp1008
a(F-8060040.865381353
F5167029.4734778805
tp1009
a(F-8064831.833626113
F5166356.339322651
tp1010
a(F-8073413.119212892
F5165090.935847572
tp1011
a(F-8075872.723361972
F5164731.519878262
tp1012
a(F-8081116.316656302
F5164012.8789585205
tp1013
a(F-8082729.892675343
F5164701.868675211
tp1014
a(F-8083287.046726762
F5166004.363602841
tp1015
a(F-8084177.157375153
F5166648.264517701
tp1016
a(F-8084510.893208553
F5167307.788265501
tp1017
a(F-8083854.442171342
F5169462.835255542
tp1018
a(F-8081728.573855662
F5172462.2979770005
tp1019
a(F-8081995.295355602
F5174440.586102341
tp1020
a(F-8082819.170906963
F5175055.382392492
tp1021
a(F-8083298.1786758425
F5175174.868330161
tp1022
a(F-8085669.395149233
F5173346.165562041
tp1023
a(F-8088117.867349233
F5166408.912148191
tp1024
a(F-8089386.798224782
F5166064.423206642
tp1025
a(F-8089643.278331572
F5164716.694265032
tp1026
a(F-8091933.008937693
F5164221.4723341605
tp1027
a(F-8091524.466406482
F5159746.341816811
tp1028
a(F-8102022.673624732
F5162186.350002252
tp1029
a(F-8102124.530958802
F5164822.420867182
tp1030
a(F-8103221.8071795525
F5164839.492979742
tp1031
a(F-8103374.760159903
F5167767.6698596515
tp1032
a(F-8105496.287015443
F5167490.090422922
tp1033
a(F-8105601.595253732
F5168971.258199821
tp1034
a(F-8110506.332018082
F5168297.535324302
tp1035
a(F-8111715.706966063
F5165742.711907572
tp1036
a(F-8112120.019356621
F5164707.559302882
tp1037
a(F-8116626.343663421
F5168149.972951072
tp1038
a(F-8113100.076153562
F5172056.289389232
tp1039
a(F-8113603.685529913
F5182136.466262981
tp1040
a(F-8114658.549024673
F5181967.081685152
tp1041
a(F-8114756.176218102
F5183368.159789521
tp1042
a(F-8121184.542852932
F5183823.727869902
tp1043
a(F-8126415.445725312
F5179098.361154982
tp1044
asS'38'
p1045
(lp1046
(F-8030161.600857532
F5136881.328407002
tp1047
a(F-8030079.224434343
F5145924.955643201
tp1048
a(F-8030062.3038717415
F5156534.580748442
tp1049
a(F-8030846.215725913
F5156409.646241111
tp1050
a(F-8037243.078944852
F5155316.1287285015
tp1051
a(F-8037388.350880333
F5156438.6727929115
tp1052
a(F-8044430.755826393
F5159849.617660222
tp1053
a(F-8044502.111619993
F5161813.421825272
tp1054
a(F-8044190.417045772
F5162834.031640651
tp1055
a(F-8039667.840093313
F5169032.385550712
tp1056
asS'11'
p1057
(lp1058
(F-8126415.445725312
F5179098.361154982
tp1059
a(F-8127371.680151223
F5177944.460362822
tp1060
a(F-8128255.890866603
F5178853.591537452
tp1061
a(F-8128581.945655132
F5178490.198437122
tp1062
a(F-8129827.054159652
F5178604.179073222
tp1063
a(F-8130724.734533412
F5179468.677343242
tp1064
a(F-8130896.277868723
F5180292.004610942
tp1065
a(F-8131452.652683713
F5180117.403387512
tp1066
a(F-8133373.693136332
F5181561.861389631
tp1067
a(F-8133540.2270945525
F5183210.156668352
tp1068
a(F-8134011.553818573
F5189349.930886572
tp1069
a(F-8133710.879873942
F5190606.150112652
tp1070
a(F-8127676.584236513
F5189215.3995935405
tp1071
a(F-8127397.1723146215
F5190416.490143822
tp1072
a(F-8125583.889129083
F5199618.453918882
tp1073
a(F-8125073.489263803
F5202301.767689271
tp1074
a(F-8124078.960933052
F5206947.560853772
tp1075
a(F-8122872.9255698025
F5213297.586315971
tp1076
a(F-8124051.798977301
F5213554.398924912
tp1077
a(F-8123633.126372423
F5215703.411711412
tp1078
asS'10'
p1079
(lp1080
(F-8123633.126372423
F5215703.411711412
tp1081
a(F-8112676.282852123
F5213478.5285791615
tp1082
a(F-8112516.650702313
F5211167.488271932
tp1083
a(F-8112055.454051962
F5210979.216528822
tp1084
a(F-8112480.917145772
F5208349.076608092
tp1085
a(F-8112035.082585143
F5204906.1411629915
tp1086
a(F-8110321.986941332
F5204428.791286161
tp1087
a(F-8100074.359896863
F5201812.523020902
tp1088
a(F-8100138.034645593
F5201281.359209671
tp1089
a(F-8099468.781866953
F5201411.102918671
tp1090
a(F-8099552.828082503
F5200738.950787852
tp1091
a(F-8100228.871350083
F5200644.243011202
tp1092
a(F-8100321.489166422
F5200012.882358202
tp1093
a(F-8099337.981465261
F5200126.975090432
tp1094
a(F-8099403.437325852
F5199159.711289582
tp1095
a(F-8093085.499625882
F5200206.795735071
tp1096
a(F-8093462.538741193
F5193085.147657702
tp1097
a(F-8089549.769959302
F5193704.023281242
tp1098
a(F-8079743.747334812
F5195634.216858452
tp1099
a(F-8075619.582839902
F5196324.784476302
tp1100
a(F-8074147.716532642
F5196562.197656541
tp1101
a(F-8069594.638039702
F5197318.804556591
tp1102
a(F-8068910.134490812
F5193375.052742962
tp1103
a(F-8056850.894053182
F5195322.306167342
tp1104
a(F-8056486.545359812
F5194685.595921672
tp1105
a(F-8056643.728480812
F5194254.135939102
tp1106
a(F-8056228.3954606615
F5193797.459032342
tp1107
a(F-8056413.519773852
F5193559.064517812
tp1108
a(F-8055866.607115582
F5192745.9851327315
tp1109
a(F-8056119.636318162
F5191704.842002092
tp1110
a(F-8055549.7918447815
F5190273.234093312
tp1111
a(F-8055912.470745793
F5189890.027429252
tp1112
a(F-8055543.891911772
F5189534.914572091
tp1113
a(F-8055857.256278362
F5189113.451386002
tp1114
a(F-8055561.703030303
F5189011.504288932
tp1115
a(F-8055205.814618242
F5187573.402805712
tp1116
a(F-8054716.565456202
F5187207.419553301
tp1117
a(F-8055037.610867652
F5186865.0174963605
tp1118
a(F-8054733.597338292
F5184831.878573382
tp1119
a(F-8055054.642749742
F5184722.024195632
tp1120
a(F-8055065.663379332
F5184139.757481131
tp1121
a(F-8054603.687492532
F5183752.750226192
tp1122
a(F-8054610.477981471
F5183336.048777961
tp1123
a(F-8054125.458960092
F5182533.609341532
tp1124
a(F-8054403.201089612
F5181395.337582641
tp1125
a(F-8054163.752864922
F5180981.591243332
tp1126
a(F-8054500.939602532
F5180809.827372592
tp1127
a(F-8054515.299816842
F5179599.018924582
tp1128
a(F-8055193.124196283
F5178394.665734981
tp1129
a(F-8054679.273426781
F5177755.656484912
tp1130
a(F-8054275.851592151
F5178188.756330532
tp1131
a(F-8054005.790507482
F5177922.715480942
tp1132
a(F-8054326.835918932
F5178354.173360742
tp1133
a(F-8053981.077580532
F5178487.948833252
tp1134
a(F-8054179.894191083
F5178755.205551341
tp1135
a(F-8053608.268605862
F5178708.262601832
tp1136
a(F-8053125.921252252
F5179410.181710872
tp1137
a(F-8052347.909331103
F5179529.2732038805
tp1138
a(F-8052146.643691742
F5180098.653449582
tp1139
a(F-8051582.699151393
F5180063.703665432
tp1140
a(F-8051572.457758233
F5181204.663957571
tp1141
a(F-8051207.329828433
F5181138.956715191
tp1142
a(F-8051232.821991822
F5181846.7589829005
tp1143
a(F-8050470.951396833
F5183125.529312122
tp1144
a(F-8050114.283748332
F5183176.995857872
tp1145
a(F-8050076.880399433
F5183775.108876222
tp1146
asS'13'
p1147
(lp1148
(F-8132301.018523042
F5138317.361496302
tp1149
a(F-8127347.078543763
F5138166.983623241
tp1150
a(F-8124035.657651132
F5138110.536540831
tp1151
a(F-8111204.416544852
F5137996.150104192
tp1152
a(F-8107994.073749862
F5137847.419947801
tp1153
a(F-8105617.736579892
F5137814.418896082
tp1154
a(F-8105973.624991963
F5132007.585652952
tp1155
a(F-8101298.2063786425
F5132694.235275671
tp1156
a(F-8100407.3164938325
F5132813.1840117015
tp1157
a(F-8100341.081396802
F5133514.668817091
tp1158
a(F-8099806.859160492
F5133783.336398781
tp1159
a(F-8100018.254873503
F5134275.913523952
tp1160
a(F-8099628.525336233
F5134902.8671021005
tp1161
a(F-8100268.835047282
F5135277.566415252
tp1162
a(F-8100228.092113653
F5135640.337315911
tp1163
a(F-8099375.384814172
F5135492.838655832
tp1164
a(F-8098994.004238713
F5136156.899408412
tp1165
a(F-8098737.524131933
F5136874.0121720815
tp1166
a(F-8099383.845095472
F5137336.439250852
tp1167
a(F-8099194.490641633
F5137769.322623212
tp1168
a(F-8094552.245236572
F5137874.1493911715
tp1169
a(F-8082729.892675343
F5136963.449801092
tp1170
a(F-8082618.684504042
F5136097.179799701
tp1171
a(F-8079880.558989002
F5136052.688937241
tp1172
a(F-8078866.438427873
F5136865.949389141
tp1173
a(F-8074230.983511752
F5137443.053040311
tp1174
a(F-8071739.096710343
F5137462.912604992
tp1175
a(F-8066060.689484982
F5137451.564277191
tp1176
a(F-8059297.696460812
F5137305.679754342
tp1177
a(F-8055918.370678802
F5137248.789882261
tp1178
a(F-8045179.824679943
F5137095.592092382
tp1179
a(F-8037886.060323671
F5137004.361453641
tp1180
a(F-8037182.855100332
F5136998.090312891
tp1181
a(F-8030161.600857532
F5136881.328407002
tp1182
asS'12'
p1183
(lp1184
(F-8132301.018523042
F5138317.361496302
tp1185
a(F-8132694.310284023
F5139535.406210472
tp1186
a(F-8132391.966547022
F5141028.308272131
tp1187
a(F-8133106.192399953
F5141452.248972132
tp1188
a(F-8132877.764804842
F5142391.320195502
tp1189
a(F-8134505.033121262
F5146432.965036242
tp1190
a(F-8134708.859108902
F5148109.934480761
tp1191
a(F-8134381.023208513
F5148498.763825331
tp1192
a(F-8134469.299564713
F5149008.5567488205
tp1193
a(F-8133157.176726732
F5150021.048547892
tp1194
a(F-8134088.030308753
F5151982.650371202
tp1195
a(F-8134194.117783473
F5153305.818739432
tp1196
a(F-8134295.1958811125
F5154514.286762031
tp1197
a(F-8130275.449068572
F5153838.159751202
tp1198
a(F-8127260.471979923
F5168028.928594552
tp1199
a(F-8126847.699308063
F5169952.040673651
tp1200
a(F-8126579.308015763
F5169914.881143321
tp1201
a(F-8126415.445725312
F5179098.361154982
tp1202
asS'15'
p1203
(lp1204
(F-7797943.354449242
F5041556.647590392
tp1205
a(F-7797943.354449242
F5041276.390661381
tp1206
a(F-7795848.210313023
F5038891.583619022
tp1207
a(F-7795428.647152222
F5037619.319492682
tp1208
a(F-7795486.421967943
F5035775.207042222
tp1209
a(F-7795488.091760303
F5035712.127619761
tp1210
a(F-7795532.285598152
F5035613.446830101
tp1211
a(F-7796626.110914682
F5033168.616208931
tp1212
a(F-7798483.587938063
F5030786.424315462
tp1213
a(F-7800699.402402303
F5028958.835938822
tp1214
a(F-7802841.300724652
F5028288.802867642
tp1215
a(F-7805010.472322252
F5027609.075093051
tp1216
a(F-7806101.737290493
F5027609.665497931
tp1217
a(F-7806099.288261703
F5027570.8464545915
tp1218
a(F-7812585.318392772
F5027546.639982682
tp1219
a(F-7813787.902851812
F5027850.7013383405
tp1220
a(F-7815046.592334212
F5027408.191949642
tp1221
a(F-7815452.574517132
F5027228.566734152
tp1222
a(F-7815669.981482652
F5027132.777839332
tp1223
a(F-7815788.091462383
F5027127.759649432
tp1224
a(F-7817467.123342012
F5027053.3726728605
tp1225
a(F-7819083.371028842
F5027767.895321181
tp1226
a(F-7819203.930037372
F5028482.471401622
tp1227
a(F-7819981.941958532
F5029356.390438611
tp1228
a(F-7821119.0705569815
F5029912.226821351
tp1229
a(F-7823335.775577153
F5030309.378069742
tp1230
a(F-7823215.995805052
F5029356.390438611
tp1231
a(F-7822197.756422772
F5027767.895321181
tp1232
a(F-7820940.736732732
F5026735.906192201
tp1233
a(F-7818604.363259963
F5025862.079189361
tp1234
a(F-7810161.447800233
F5021259.461411341
tp1235
a(F-7810142.746125783
F5021254.298800281
tp1236
a(F-7804471.129389353
F5019672.311029801
tp1237
a(F-7803094.441246713
F5019672.311029801
tp1238
a(F-7801836.642320243
F5020148.2367603015
tp1239
a(F-7796787.524176332
F5019648.566982262
tp1240
a(F-7793923.718956182
F5019363.937956632
tp1241
a(F-7791253.498330532
F5020049.716568252
tp1242
a(F-7788601.979379322
F5021338.2284514215
tp1243
a(F-7787883.412066252
F5023480.5276941415
tp1244
a(F-7788003.191838342
F5025227.088339121
tp1245
a(F-7794769.5244472325
F5038493.484135182
tp1246
a(F-7796439.316809132
F5040459.908446722
tp1247
a(F-7797943.354449242
F5042117.629630721
tp1248
a(F-7797943.354449242
F5041556.647590392
tp1249
asS'14'
p1250
(lp1251
(F-8003781.553207302
F5239144.205021091
tp1252
a(F-8003600.6590347625
F5237998.405967701
tp1253
a(F-8000565.199159812
F5234959.423961112
tp1254
a(F-8000120.143835623
F5235034.865865062
tp1255
a(F-7999230.144506723
F5233646.681856512
tp1256
a(F-7999296.379603753
F5227417.867101552
tp1257
a(F-7997771.079940903
F5228036.158610952
tp1258
a(F-7990045.841238323
F5227855.536657571
tp1259
a(F-7990067.882497492
F5228955.9073598115
tp1260
a(F-7977723.330204963
F5224086.945370202
tp1261
a(F-7979281.803076061
F5211842.649028242
tp1262
a(F-7974517.217550623
F5210909.085899031
tp1263
a(F-7974902.828266732
F5212007.458278602
tp1264
a(F-7974546.049298742
F5213292.468199821
tp1265
a(F-7973695.123111113
F5214518.487757682
tp1266
a(F-7972760.818624882
F5215178.533562582
tp1267
a(F-7971401.941600772
F5214112.004679512
tp1268
a(F-7969943.656271383
F5213800.078563352
tp1269
a(F-7968340.210325993
F5214872.895233582
tp1270
a(F-7963725.126876682
F5213741.518307442
tp1271
a(F-7962714.457219772
F5210231.133480331
tp1272
a(F-7966107.363979662
F5203453.563407841
tp1273
a(F-7964224.506112382
F5202209.449740092
tp1274
a(F-7964861.4762387015
F5199387.877319242
tp1275
a(F-7965971.554200892
F5194052.3841484515
tp1276
a(F-7968908.385007002
F5193307.457489832
tp1277
a(F-7970967.127669732
F5191913.451850311
tp1278
a(F-7968327.519904043
F5190327.743212542
tp1279
a(F-7971410.401882073
F5187821.853240902
tp1280
a(F-7970871.1702686725
F5187372.995930051
tp1281
a(F-7971649.0708703315
F5185900.774916092
tp1282
a(F-7973295.040861202
F5184815.220244681
tp1283
a(F-7972575.694311692
F5183631.504248191
tp1284
a(F-7971015.551648223
F5182786.577405921
tp1285
a(F-7971119.969330593
F5181809.702302332
tp1286
a(F-7968899.034169772
F5178922.282365682
tp1287
a(F-7967095.101821473
F5180326.355234651
tp1288
a(F-7965102.705575252
F5181248.769077371
tp1289
a(F-7961187.376445073
F5181803.851260911
tp1290
a(F-7960283.7961383015
F5181438.8435168415
tp1291
a(F-7957908.238204772
F5181759.293449931
tp1292
a(F-7957863.265130492
F5178803.798500752
tp1293
a(F-7959046.368678642
F5175722.244331492
tp1294
a(F-7960021.304779012
F5173169.445336272
tp1295
a(F-7960059.598683842
F5171919.608281811
tp1296
a(F-7961038.7649248615
F5172374.170588562
tp1297
a(F-7961865.980060953
F5172199.267152841
tp1298
a(F-7962998.099282313
F5172169.442470891
tp1299
a(F-7963903.460700932
F5171663.486438042
tp1300
a(F-7964965.114684633
F5172150.1089337515
tp1301
a(F-7966283.248775112
F5172404.445550402
tp1302
a(F-7969125.791972523
F5171157.557695162
tp1303
a(F-7970522.072345542
F5166090.034775512
tp1304
a(F-7970845.678105283
F5164892.057310762
tp1305
a(F-7968690.978041482
F5161518.652865682
tp1306
a(F-7967418.707581212
F5161396.496373941
tp1307
a(F-7967501.084004393
F5161099.495060702
tp1308
a(F-7965725.204167772
F5161044.706529991
tp1309
a(F-7965611.4356481815
F5159576.762351212
tp1310
a(F-7963769.320714532
F5160683.349745152
tp1311
a(F-7960141.975107033
F5160581.112548211
tp1312
a(F-7959667.976715233
F5160957.883829822
tp1313
a(F-7959076.870219123
F5157254.445336961
tp1314
a(F-7956921.390918892
F5157133.3917083405
tp1315
a(F-7956936.641689132
F5155780.061446302
tp1316
asS'17'
p1317
(lp1318
(F-7956936.641689132
F5155780.061446302
tp1319
a(F-7955360.357699503
F5155973.5106506515
tp1320
a(F-7953160.684561423
F5158457.135750332
tp1321
a(F-7951608.111623332
F5159147.364313462
tp1322
a(F-7948509.867555572
F5159064.001406512
tp1323
a(F-7948753.657240402
F5160496.539426892
tp1324
a(F-7946555.653894692
F5161053.837929581
tp1325
a(F-7942011.035683063
F5162351.335398071
tp1326
a(F-7942875.654168052
F5163239.491703321
tp1327
a(F-7942931.759191412
F5163779.283837672
tp1328
a(F-7942343.992280023
F5164533.846960191
tp1329
a(F-7941540.5995149715
F5164297.992674011
tp1330
a(F-7941366.495831362
F5164509.8868893115
tp1331
a(F-7941900.606748193
F5165337.143728131
tp1332
a(F-7940388.888063223
F5167221.956183332
tp1333
a(F-7940351.4847143125
F5168930.207212192
tp1334
a(F-7940715.054171243
F5169346.268784252
tp1335
a(F-7940709.042918742
F5169554.830896752
tp1336
a(F-7937421.444397143
F5169458.190548392
tp1337
a(F-7938048.284449803
F5172881.963568272
tp1338
a(F-7939684.792283953
F5176704.332877042
tp1339
a(F-7940408.480293603
F5179104.210507151
tp1340
a(F-7940152.000186812
F5179298.7410422405
tp1341
a(F-7933784.747952412
F5181443.944225811
tp1342
a(F-7932204.2338221315
F5180873.882177151
tp1343
a(F-7931892.539247911
F5181219.065606512
tp1344
a(F-7931090.816275223
F5180348.705708102
tp1345
a(F-7929387.962024553
F5180289.154564852
tp1346
a(F-7929064.356264823
F5179539.022574482
tp1347
a(F-7928998.121167802
F5178533.690884702
tp1348
a(F-7927439.6482966915
F5178113.772237732
tp1349
a(F-7926526.605833203
F5175654.776376122
tp1350
a(F-7925580.501480953
F5175160.0262048915
tp1351
a(F-7925357.973818852
F5175444.879175462
tp1352
a(F-7925012.326799943
F5175160.0262048915
tp1353
a(F-7925024.237985463
F5174650.460821031
tp1354
asS'16'
p1355
(lp1356
(F-7912667.774507412
F5146658.656148181
tp1357
a(F-7919122.412542073
F5143303.291922032
tp1358
a(F-7922508.640132513
F5141578.777608202
tp1359
a(F-7923556.601818842
F5141021.4369451115
tp1360
a(F-7935676.956656923
F5134589.6836486915
tp1361
a(F-7944275.274125793
F5130171.890432112
tp1362
a(F-7946185.405268323
F5130127.427528742
tp1363
asS'19'
p1364
(lp1365
(F-7912667.774507412
F5146658.656148181
tp1366
a(F-7910642.205052932
F5147809.316579702
tp1367
a(F-7906221.596754042
F5150082.052716241
tp1368
a(F-7903962.367688392
F5151248.534513251
tp1369
a(F-7901625.103659692
F5152579.526262411
tp1370
a(F-7897127.239634193
F5154942.8747515315
tp1371
a(F-7895352.250353492
F5155901.097643852
tp1372
a(F-7894265.994762332
F5166020.389444572
tp1373
a(F-7895224.010300102
F5166139.311031481
tp1374
a(F-7895101.670179722
F5166648.264517701
tp1375
a(F-7896336.537291092
F5169749.762752301
tp1376
a(F-7896193.046467453
F5170167.059394102
tp1377
a(F-7894510.563683602
F5170588.8700154815
tp1378
a(F-7894545.406684222
F5171832.8347965805
tp1379
a(F-7893610.322961562
F5171907.618806002
tp1380
a(F-7892841.661877633
F5172371.922451731
tp1381
a(F-7894110.481433692
F5174050.681327442
tp1382
a(F-7894176.827850212
F5175564.969784382
tp1383
a(F-7895446.537962193
F5175685.061931581
tp1384
a(F-7895466.0188730825
F5175658.824439752
tp1385
asS'18'
p1386
(lp1387
(F-7925024.237985463
F5174650.460821031
tp1388
a(F-7922073.714881982
F5177799.145523941
tp1389
asS'31'
p1390
(lp1391
(F-7852257.024563203
F5104152.311012262
tp1392
a(F-7852246.003933612
F5104165.4049160415
tp1393
a(F-7852705.419472123
F5104885.5975341005
tp1394
a(F-7852766.645192052
F5107082.077215132
tp1395
a(F-7851671.038763663
F5108627.166277552
tp1396
a(F-7850880.336420562
F5111230.721256741
tp1397
a(F-7851489.254035202
F5112370.216165851
tp1398
a(F-7851793.267564562
F5115137.771328832
tp1399
a(F-7851610.703599653
F5115869.824769452
tp1400
a(F-7853314.337086762
F5118964.770348282
tp1401
a(F-7853131.773121862
F5120023.3728924915
tp1402
a(F-7852340.291542313
F5120512.250957961
tp1403
a(F-7852644.305071672
F5121571.0270364005
tp1404
a(F-7853678.797099612
F5121571.0270364005
tp1405
a(F-7855564.215315182
F5122874.5743437605
tp1406
a(F-7855686.444116073
F5123445.007456732
tp1407
a(F-7857390.188922663
F5124830.083828482
tp1408
a(F-7858971.593608873
F5124504.112586462
tp1409
a(F-7860187.759045793
F5123363.003711121
tp1410
a(F-7860979.351944823
F5123363.003711121
tp1411
a(F-7861890.613296452
F5123852.203881772
tp1412
a(F-7862255.852545743
F5124504.112586462
tp1413
a(F-7864628.738811492
F5124830.083828482
tp1414
a(F-7866636.497147443
F5126459.959839251
tp1415
a(F-7868036.1171051925
F5128986.9809501115
tp1416
a(F-7869381.413151422
F5129888.405714951
tp1417
a(F-7870225.660169602
F5130454.189998602
tp1418
a(F-7870348.000289983
F5131922.224318011
tp1419
a(F-7871138.702633082
F5132493.2048766315
tp1420
a(F-7871265.161574633
F5132960.043743872
tp1421
a(F-7871381.601761993
F5133390.487278431
tp1422
a(F-7869920.756084313
F5134532.213077482
tp1423
a(F-7868036.1171051925
F5133145.7111517405
tp1424
a(F-7867062.071560741
F5133471.981228641
tp1425
a(F-7866636.497147443
F5134124.406000072
tp1426
a(F-7867183.521125202
F5135429.6896317005
tp1427
a(F-7866940.621996292
F5137714.072516941
tp1428
a(F-7866575.382747002
F5138366.940427542
tp1429
a(F-7865540.8907190515
F5138693.988711072
tp1430
a(F-7864020.711752782
F5140080.709983552
tp1431
a(F-7864620.278530193
F5143222.310517661
tp1432
a(F-7864628.738811492
F5143265.042315811
tp1433
a(F-7864202.385161753
F5144162.753742442
tp1434
a(F-7863411.682818652
F5144653.034761322
tp1435
a(F-7863714.917111572
F5145870.703833651
tp1436
a(F-7866088.693933252
F5148246.718058001
tp1437
a(F-7867940.159704123
F5151273.6571074715
tp1438
a(F-7871989.628820713
F5157891.461509862
tp1439
a(F-7872415.203234012
F5159854.257616072
tp1440
a(F-7872354.868070003
F5160590.842248182
tp1441
a(F-7871989.628820713
F5160754.153024201
tp1442
a(F-7871989.628820713
F5163044.695005112
tp1443
a(F-7873997.387156662
F5164108.864279371
tp1444
a(F-7876491.834306353
F5166564.385645942
tp1445
a(F-7877068.469268663
F5168615.738633092
tp1446
a(F-7877493.932362473
F5168760.911241131
tp1447
a(F-7877386.954331822
F5169954.887579221
tp1448
a(F-7877812.4174256325
F5169969.271957411
tp1449
a(F-7877761.5444183415
F5170473.338470932
tp1450
a(F-7878371.352588903
F5170404.259978071
tp1451
a(F-7878269.383935342
F5169409.646004811
tp1452
a(F-7878598.110391652
F5168884.961441191
tp1453
a(F-7879874.610992582
F5168484.351119102
tp1454
a(F-7879866.039391791
F5168852.450541772
tp1455
asS'30'
p1456
(lp1457
(F-7886240.082115122
F5077022.708141751
tp1458
a(F-7885828.979235623
F5076598.234096842
tp1459
a(F-7884719.012592922
F5076528.6524304515
tp1460
a(F-7883608.934630732
F5077302.981203971
tp1461
a(F-7882656.819025972
F5076528.6524304515
tp1462
a(F-7881969.755128803
F5076809.949467481
tp1463
a(F-7881547.631619711
F5077373.607166431
tp1464
a(F-7882022.409247943
F5079135.271761961
tp1465
a(F-7880436.774421082
F5080685.902112731
tp1466
a(F-7879009.1019516615
F5080333.247991472
tp1467
a(F-7878110.531021972
F5078853.312224441
tp1468
a(F-7877582.320038162
F5078924.098120912
tp1469
a(F-7877265.504767362
F5080051.252862611
tp1470
a(F-7876736.403227622
F5080615.103074872
tp1471
a(F-7876789.0573467715
F5082800.320605872
tp1472
a(F-7876224.222250482
F5083376.360135791
tp1473
a(F-7875890.486417092
F5083717.249486551
tp1474
a(F-7875362.275433273
F5083435.302235582
tp1475
a(F-7875256.076639062
F5083999.353596082
tp1476
a(F-7876102.772686033
F5085550.333681851
tp1477
a(F-7876419.587956833
F5087313.368802592
tp1478
a(F-7875362.275433273
F5087313.368802592
tp1479
a(F-7874833.062574042
F5086467.528467721
tp1480
a(F-7872560.3638500115
F5084774.737690691
tp1481
a(F-7872455.055611713
F5084281.466095731
tp1482
a(F-7872032.152866193
F5084210.640221472
tp1483
a(F-7872402.401492571
F5085903.181798531
tp1484
a(F-7872083.916429412
F5086325.844593781
tp1485
a(F-7872296.202698353
F5086819.816625661
tp1486
a(F-7871767.1011586115
F5089006.464337292
tp1487
a(F-7872613.017969153
F5089570.9957624115
tp1488
a(F-7872878.069676732
F5090135.412237602
tp1489
a(F-7872688.603903403
F5090841.611587871
tp1490
a(F-7872613.017969153
F5091122.739037951
tp1491
a(F-7872824.525001662
F5092816.663862211
tp1492
a(F-7872242.769342772
F5093240.080922361
tp1493
a(F-7871714.447039473
F5092957.850319241
tp1494
a(F-7871080.927817362
F5091899.300371702
tp1495
a(F-7869759.342822673
F5091687.990928191
tp1496
a(F-7869230.241282922
F5091264.494625282
tp1497
a(F-7867643.827219632
F5091475.943220611
tp1498
a(F-7866534.639813363
F5090135.412237602
tp1499
a(F-7865000.768549723
F5089853.125513912
tp1500
a(F-7864094.516575182
F5090277.153057821
tp1501
asS'37'
p1502
(lp1503
(F-8046557.403378513
F5240673.767095981
tp1504
a(F-8051361.8412816515
F5240865.055533742
tp1505
a(F-8060921.625192513
F5241261.232893801
tp1506
a(F-8065289.579372252
F5241449.060680361
tp1507
a(F-8066097.202277962
F5241475.483703931
tp1508
a(F-8072582.453172592
F5241728.393585291
tp1509
a(F-8078047.794892583
F5241948.997015072
tp1510
a(F-8081695.511966892
F5242089.575921352
tp1511
a(F-8090148.557500282
F5242386.746490741
tp1512
a(F-8091460.791657751
F5242432.349725622
tp1513
a(F-8103109.7084523225
F5242859.702166712
tp1514
a(F-8105125.1478331415
F5242944.419948252
tp1515
a(F-8111257.961219923
F5243133.942914252
tp1516
a(F-8118228.119816453
F5243343.555283691
tp1517
a(F-8118609.5003919015
F5243353.975618451
tp1518
a(F-8128449.475461092
F5243620.075660641
tp1519
a(F-8128923.362533391
F5243631.704496792
tp1520
asS'36'
p1521
(lp1522
(F-7901198.750009962
F5178747.706661842
tp1523
a(F-7900074.3118334515
F5179243.2461833805
tp1524
a(F-7898595.655037252
F5181705.434291282
tp1525
a(F-7899002.527776093
F5181958.980108052
tp1526
a(F-7899943.511431772
F5181196.713056701
tp1527
a(F-7901198.750009962
F5178747.706661842
tp1528
asS'35'
p1529
(lp1530
(F-7906901.870162282
F5178564.135718102
tp1531
a(F-7907859.885700042
F5180001.304374971
tp1532
a(F-7909023.397017812
F5180717.121194492
tp1533
a(F-7908818.6804742515
F5181570.412692052
tp1534
a(F-7907553.311822402
F5181515.504464971
tp1535
a(F-7906531.510216412
F5182065.501403642
tp1536
a(F-7905449.596085393
F5181845.708791552
tp1537
a(F-7904776.001846602
F5182726.560639641
tp1538
a(F-7903938.656636852
F5185588.738225552
tp1539
a(F-7902795.516785892
F5185286.467287522
tp1540
a(F-7902359.812298932
F5186504.915910892
tp1541
a(F-7902209.419666871
F5186518.575201432
tp1542
a(F-7901044.2385567315
F5186625.7487879805
tp1543
a(F-7900408.047666852
F5185535.007127262
tp1544
a(F-7900382.666822953
F5185490.8818190005
tp1545
a(F-7899003.307012532
F5183966.285016232
tp1546
a(F-7898425.7814942915
F5183866.794905362
tp1547
a(F-7898482.777073582
F5184731.778972122
tp1548
a(F-7899109.5058067525
F5185658.078813702
tp1549
a(F-7899964.7734545125
F5185813.7217872515
tp1550
a(F-7899996.165550913
F5185862.501458032
tp1551
a(F-7900403.038289772
F5186491.106538532
tp1552
a(F-7900017.427573663
F5187461.7148491405
tp1553
a(F-7900650.9467957625
F5189361.9427032005
tp1554
a(F-7900549.089461682
F5190022.9166777115
tp1555
a(F-7900017.427573663
F5190325.941253122
tp1556
a(F-7900222.144117232
F5190739.049530952
tp1557
a(F-7901507.8842358915
F5190766.5306631215
tp1558
a(F-7901580.130585412
F5191067.3266919805
tp1559
a(F-7901937.688789843
F5192557.483376791
tp1560
a(F-7902550.057308692
F5192640.543841811
tp1561
a(F-7902733.511829522
F5193356.726870522
tp1562
a(F-7901855.312366653
F5195808.957500242
tp1563
a(F-7899527.399175183
F5198124.917483791
tp1564
a(F-7899017.778546332
F5198913.815268962
tp1565
asS'34'
p1566
(lp1567
(F-7906901.870162282
F5178564.135718102
tp1568
a(F-7907869.236537273
F5178233.897043682
tp1569
a(F-7908381.306194922
F5178038.938711232
tp1570
a(F-7908337.1123570725
F5177259.145931832
tp1571
a(F-7907668.750134353
F5175564.969784382
tp1572
a(F-7908504.425551743
F5173796.150163171
tp1573
a(F-7909639.995677322
F5173825.9800187815
tp1574
a(F-7909917.737806852
F5173601.134198882
tp1575
a(F-7909684.189515162
F5173091.803406222
tp1576
a(F-7910597.120659162
F5172342.097220751
tp1577
a(F-7911020.134724172
F5172866.525537052
tp1578
a(F-7912990.489711212
F5172506.811615511
tp1579
a(F-7913702.155215863
F5172701.804824791
tp1580
a(F-7913825.385892162
F5172252.472222992
tp1581
a(F-7914303.503105123
F5172282.147294632
tp1582
a(F-7915247.937665012
F5171205.661712732
tp1583
a(F-7916096.414823842
F5171442.888559962
tp1584
a(F-7916408.109398061
F5171143.321350972
tp1585
a(F-7915929.1016291715
F5170574.035146102
tp1586
a(F-7915895.928420923
F5169449.650286412
tp1587
a(F-7917788.137125423
F5168086.604238012
tp1588
a(F-7917354.213750313
F5167412.345684412
tp1589
a(F-7918289.2974729715
F5166423.7404342815
tp1590
a(F-7919592.069473733
F5167622.063216582
tp1591
a(F-7920059.166057101
F5170588.8700154815
tp1592
a(F-7920682.555205542
F5170978.181337312
tp1593
a(F-7921373.070006932
F5170499.111921771
tp1594
a(F-7923086.944887182
F5172267.309747072
tp1595
a(F-7923142.159354622
F5173570.855373691
tp1596
a(F-7924133.348100643
F5173601.134198882
tp1597
a(F-7924678.590966543
F5174275.987645501
tp1598
a(F-7925024.237985463
F5174650.460821031
tp1599
asS'33'
p1600
(lp1601
(F-7906556.223143362
F5198997.984327872
tp1602
a(F-7909695.210144753
F5203658.375374502
tp1603
a(F-7909595.022603042
F5205147.081271692
tp1604
a(F-7908804.3202599315
F5205568.214988322
tp1605
a(F-7908203.862926593
F5206621.132362811
tp1606
a(F-7908637.7863017125
F5207388.332635692
tp1607
a(F-7907757.917046483
F5208065.476849871
tp1608
a(F-7908381.306194922
F5210277.031035792
tp1609
a(F-7908091.764199372
F5210879.288065622
tp1610
a(F-7908326.0917274915
F5211180.130155732
tp1611
a(F-7911075.349191612
F5210954.535302881
tp1612
a(F-7912121.641085572
F5211932.804595491
tp1613
a(F-7911646.863457342
F5215668.9308578605
tp1614
a(F-7910085.830237942
F5218467.715252682
tp1615
a(F-7909631.535396022
F5218014.521745211
tp1616
a(F-7908638.676857633
F5218346.620514231
tp1617
a(F-7907534.610147942
F5217915.722761332
tp1618
a(F-7906878.938347172
F5218414.3972263215
tp1619
a(F-7907504.887843903
F5220147.991731602
tp1620
a(F-7910336.410411722
F5223293.053964612
tp1621
a(F-7910267.614966412
F5223701.745877372
tp1622
a(F-7912195.557227462
F5222956.710347931
tp1623
a(F-7918800.587894193
F5222198.625496572
tp1624
a(F-7919666.876171541
F5222955.052770562
tp1625
a(F-7920283.474831042
F5224336.971872352
tp1626
a(F-7920920.4449573625
F5224642.317736512
tp1627
a(F-7921396.892377962
F5224290.402232462
tp1628
a(F-7922109.448438532
F5222033.636069202
tp1629
a(F-7923910.8204385415
F5223544.264754572
tp1630
a(F-7923487.806373532
F5223679.894270702
tp1631
a(F-7923398.639461403
F5224448.498816872
tp1632
a(F-7922820.334706732
F5224780.2240104005
tp1633
a(F-7932248.316340492
F5230886.468916432
tp1634
a(F-7931602.885932873
F5231474.523719962
tp1635
a(F-7930700.9754184615
F5231732.290149862
tp1636
a(F-7930244.899464683
F5232816.827449672
tp1637
a(F-7932231.395777882
F5242870.726005472
tp1638
asS'32'
p1639
(lp1640
(F-7884343.531950473
F5171964.269214061
tp1641
a(F-7884713.891896343
F5172352.438621752
tp1642
a(F-7885222.621969271
F5172215.303578832
tp1643
a(F-7885913.916007092
F5172762.9564895015
tp1644
a(F-7886116.962758302
F5172324.4119527005
tp1645
a(F-7886747.142395683
F5172653.243492722
tp1646
a(F-7887092.789414593
F5172406.843571361
tp1647
a(F-7889207.525781193
F5174788.980708792
tp1648
a(F-7890427.921358762
F5177061.808660832
tp1649
a(F-7890753.196910863
F5178157.262938482
tp1650
a(F-7890591.004412772
F5178677.967276832
tp1651
a(F-7891424.230801363
F5178677.967276832
tp1652
a(F-7892115.524839193
F5178130.418654532
tp1653
a(F-7893274.026779871
F5178376.969046202
tp1654
a(F-7895124.601994822
F5177773.951849162
tp1655
a(F-7895466.0188730825
F5175658.824439752
tp1656
as(lp1657
(F-7878323.0399299
F5218629.93044479
tp1658
a(F-8163762.91224747
F5141249.53780648
tp1659
a(F-7910000.11423003
F5186059.72401008
tp1660
a(F-7907287.2582394
F5191329.53621101
tp1661
a(F-8064871.12940636
F5239734.44245907
tp1662
a(F-7909750.75857066
F5193493.87136068
tp1663
a(F-8127476.09783359
F5232350.86819715
tp1664
a(F-8112901.03690403
F5167214.7660969
tp1665
a(F-7908903.61724572
F5213109.87371605
tp1666
a(F-8078524.46495215
F5240071.09081533
tp1667
a(F-7916898.58307449
F5220426.9876094
tp1668
a(F-7914622.09948777
F5190266.32662428
tp1669
a(F-7896873.31987569
F5165595.6389992
tp1670
a(F-8149271.340936
F5242666.56059193
tp1671
a(F-7920746.89787122
F5184704.46562355
tp1672
a(F-7921173.25152095
F5174765.89391872
tp1673
a(F-7864576.19601184
F5224097.49487608
tp1674
a(F-7884378.82022905
F5252154.72112397
tp1675
a(F-7850322.84841067
F5041909.4933137
tp1676
a(F-7892938.17587615
F5078205.43062125
tp1677
a(F-7861101.91470418
F5065808.33618474
tp1678
a(F-7882854.85640009
F5034819.60585248
tp1679
a(F-7877705.216756
F5088154.08559062
tp1680
a(F-7803421.72054965
F5026301.86053386
tp1681
a(F-7795936.59798871
F5123226.13359195
tp1682
a(F-7854864.68363503
F5098868.61431592
tp1683
a(F-7831173.66960441
F5080329.09221294
tp1684
a(F-7863237.0225376
F5072829.39261701
tp1685
a(F-7840886.29517612
F5075469.56075976
tp1686
a(F-7840766.07012607
F5075582.30337943
tp1687
a(F-7806683.38162989
F5082491.8272188
tp1688
a(F-7842782.06610433
F5094012.95130665
tp1689
a(F-7860515.2609877
F5093146.44898465
tp1690
a(F-7860577.59990254
F5092926.49188229
tp1691
a(F-7861431.42039693
F5080532.43065306
tp1692
a(F-7860653.29715628
F5090670.7400984
tp1693
a(F-7814546.99045953
F5092822.4598964
tp1694
a(F-7850030.07814988
F5040752.11354837
tp1695
a(F-7854305.85979125
F5043758.93179713
tp1696
a(F-7841550.87253616
F5093470.44915258
tp1697
a(F-7854420.51886677
F5043826.94356665
tp1698
a(F-7795039.36289291
F5084698.11706048
tp1699
a(F-7787403.9590194
F5103597.32470733
tp1700
a(F-7863002.13841202
F5073585.77027696
tp1701
a(F-7888376.30314344
F5080067.87550096
tp1702
a(F-7898966.1263026
F5098606.88620174
tp1703
a(F-7820725.22219855
F5088241.72643709
tp1704
a(F-7924185.55694182
F5085315.85139054
tp1705
a(F-7903819.65610119
F5102628.78047785
tp1706
a(F-7888645.69631116
F5078791.57904337
tp1707
a(F-7892158.9394406
F5093544.76267985
tp1708
a(F-7854646.49743308
F5104490.08000774
tp1709
a(F-7898783.5623377
F5102587.12488514
tp1710
a(F-7897974.26963964
F5073608.01759054
tp1711
a(F-7864274.52019179
F5094154.15559278
tp1712
a(F-7968329.30101589
F5136427.28467332
tp1713
a(F-7966878.80805086
F5190936.07451477
tp1714
a(F-7960824.14094661
F5138765.67204386
tp1715
a(F-7973658.16504017
F5186427.46360737
tp1716
a(F-8028112.32035151
F5149516.88218622
tp1717
a(F-7968960.48252869
F5216244.43148632
tp1718
a(F-7973658.16504017
F5186427.46360737
tp1719
a(F-7968451.75245577
F5136228.71273914
tp1720
a(F-7951848.45040395
F5235820.85599808
tp1721
a(F-7803349.36288063
F5026070.16112887
tp1722
a(F-7861172.04598338
F5065956.53125833
tp1723
a(F-7848673.09355711
F5097412.84348092
tp1724
a(F-7799737.04540439
F5096450.87873016
tp1725
a(F-7813758.84846471
F5093369.38369094
tp1726
a(F-7892980.47728265
F5078135.68878808
tp1727
a(F-8112901.03690403
F5167214.7660969
tp1728
a(F-8127561.8138415
F5232471.5417125
tp1729
a(F-8162391.4561209
F5213788.78799698
tp1730
a(F-7878021.36410985
F5218982.38543525
tp1731
a(F-7914594.26961507
F5168679.86000347
tp1732
a(F-7926050.15841261
F5141476.59850669
tp1733
a(F-7921228.91126635
F5166976.59759704
tp1734
a(F-7957323.14296116
F5146685.56008554
tp1735
a(F-7934223.23542665
F5179213.3990844
tp1736
a(F-7957215.16305509
F5143620.50070004
tp1737
a(F-7957413.31174871
F5146491.25559963
tp1738
a(F-7911488.45582194
F5174767.3930592
tp1739
a(F-7910197.14972874
F5177202.31357145
tp1740
a(F-7903436.71705286
F5190677.78041208
tp1741
a(F-7910158.18790696
F5179132.40743547
tp1742
a(F-7903497.9427728
F5190773.88901275
tp1743
a(F-7910476.56165063
F5179772.86051802
tp1744
a(F-7925144.01775755
F5222655.3374896
tp1745
a(F-7939783.64399177
F5181076.40024828
tp1746
a(F-7927393.78466648
F5180155.35337669
tp1747
a(F-7860121.18999029
F5095384.95155236
tp1748
a(F-7794665.32940385
F5122224.26897786
tp1749
a(F-7913526.71569837
F5142338.58272403
tp1750
a(F-7935021.39617564
F5098452.23208058
tp1751
a(F-7913062.51342176
F5139914.17316245
tp1752
a(F-7866753.60525176
F5036800.63850972
tp1753
a(F-7922657.14033323
F5250641.70738235
tp1754
a(F-7921586.2468318
F5226025.24079525
tp1755
a(F-7868721.73384898
F5222040.56707314
tp1756
a(F-7922414.4638433
F5243731.22980645
tp1757
a(F-7907261.65475652
F5203046.35882646
tp1758
a(F-7916209.51542648
F5253026.96992414
tp1759
a(F-8031656.73293837
F5149126.66520948
tp1760
a(F-8102006.19834009
F5135601.67094589
tp1761
a(F-8060321.50181764
F5158792.66550478
tp1762
a(F-8101482.99673336
F5160186.09524023
tp1763
a(F-8056502.13008852
F5165043.01292328
tp1764
a(F-8080648.44083649
F5193800.31319376
tp1765
a(F-8122612.54928083
F5205992.52641101
tp1766
a(F-7803897.05477533
F5025991.94540038
tp1767
a(F-7870236.79211868
F5136212.28968385
tp1768
a(F-7889630.87380468
F5097173.45826612
tp1769
a(F-7872929.61060097
F5134301.43867658
tp1770
a(F-7905537.31584413
F5148591.45139293
tp1771
a(F-7871401.19399238
F5094666.96780759
tp1772
a(F-7868719.50745916
F5135638.99369421
tp1773
a(F-8001987.86225215
F5137872.65612418
tp1774
a(F-7983848.35122738
F5135742.00524665
tp1775
a(F-7941689.43367415
F5171032.27860781
tp1776
a(F-7920382.88313632
F5188524.60585601
tp1777
a(F-7969487.02372014
F5236436.53679583
tp1778
a(F-7930597.55961151
F5227767.94079449
tp1779
a(F-7916655.90658456
F5189185.22040608
tp1780
a(F-7913430.98093628
F5191766.56840571
tp1781
a(F-7930650.9929671
F5182599.17632748
tp1782
a(F-7908903.61724572
F5213109.87371605
tp1783
a(F-7939601.08002687
F5106731.26701357
tp1784
atp1785
.